; Listing generated by Microsoft (R) Optimizing Compiler Version 19.29.30143.0 

include listing.inc

INCLUDELIB MSVCRT
INCLUDELIB OLDNAMES

CONST	SEGMENT
?_Fake_alloc@std@@3U_Fake_allocator@1@B	ORG $+1		; std::_Fake_alloc
CONST	ENDS
PUBLIC	?_Maklocwcs@std@@YAPEA_WPEB_W@Z			; std::_Maklocwcs
PUBLIC	??$_Maklocstr@D@std@@YAPEADPEBDPEADAEBU_Cvtvec@@@Z ; std::_Maklocstr<char>
PUBLIC	?fixed@std@@YAAEAVios_base@1@AEAV21@@Z		; std::fixed
PUBLIC	??$_Getvals@_W@?$time_get@DV?$istreambuf_iterator@DU?$char_traits@D@std@@@std@@@std@@IEAAX_WAEBV_Locinfo@1@@Z ; std::time_get<char,std::istreambuf_iterator<char,std::char_traits<char> > >::_Getvals<wchar_t>
PUBLIC	??$_Getvals@_W@?$time_get@_WV?$istreambuf_iterator@_WU?$char_traits@_W@std@@@std@@@std@@IEAAX_WAEBV_Locinfo@1@@Z ; std::time_get<wchar_t,std::istreambuf_iterator<wchar_t,std::char_traits<wchar_t> > >::_Getvals<wchar_t>
PUBLIC	?CalcZ_Cpp@@YAXPEAMPEBM1_K@Z			; CalcZ_Cpp
PUBLIC	?CalcZ_Iavx@@YAXPEAMPEBM1_K@Z			; CalcZ_Iavx
PUBLIC	main
PUBLIC	??$?6U?$char_traits@D@std@@@std@@YAAEAV?$basic_ostream@DU?$char_traits@D@std@@@0@AEAV10@PEBD@Z ; std::operator<<<std::char_traits<char> >
PUBLIC	??$?6DU?$char_traits@D@std@@_J@std@@YAAEAV?$basic_ostream@DU?$char_traits@D@std@@@0@AEAV10@AEBU?$_Smanip@_J@0@@Z ; std::operator<<<char,std::char_traits<char>,__int64>
PUBLIC	??$endl@DU?$char_traits@D@std@@@std@@YAAEAV?$basic_ostream@DU?$char_traits@D@std@@@0@AEAV10@@Z ; std::endl<char,std::char_traits<char> >
PUBLIC	??1_Sentry_base@?$basic_ostream@DU?$char_traits@D@std@@@std@@QEAA@XZ ; std::basic_ostream<char,std::char_traits<char> >::_Sentry_base::~_Sentry_base
PUBLIC	??1sentry@?$basic_ostream@DU?$char_traits@D@std@@@std@@QEAA@XZ ; std::basic_ostream<char,std::char_traits<char> >::sentry::~sentry
PUBLIC	??_C@_04IBFKBJDL@?5sec@				; `string'
PUBLIC	??_C@_0CB@KPCJIIKF@Time?5taken?5by?5Iavx?5program?5is?5?3@ ; `string'
PUBLIC	??_C@_0CB@NOJKNLMI@Time?5taken?5by?5Cpp?5program?5is?5?5?3@ ; `string'
PUBLIC	??_C@_0CB@KGIIJFCA@Time?5taken?5by?5Aavx?5program?5is?5?3@ ; `string'
PUBLIC	??_C@_1BK@MHIKGOKE@?$AA?3?$AAA?$AAM?$AA?3?$AAa?$AAm?$AA?3?$AAP?$AAM?$AA?3?$AAp?$AAm@ ; `string'
PUBLIC	__real@3e112e0be826d695
PUBLIC	__zmm@3f8000003f8000003f8000003f8000003f8000003f8000003f8000003f8000003f8000003f8000003f8000003f8000003f8000003f8000003f8000003f800000
PUBLIC	__zmm@40000000400000004000000040000000400000004000000040000000400000004000000040000000400000004000000040000000400000004000000040000000
EXTRN	??_U@YAPEAX_K@Z:PROC				; operator new[]
EXTRN	__std_terminate:PROC
EXTRN	__imp_calloc:PROC
EXTRN	?_Xbad_alloc@std@@YAXXZ:PROC			; std::_Xbad_alloc
EXTRN	?uncaught_exception@std@@YA_NXZ:PROC		; std::uncaught_exception
EXTRN	_Query_perf_counter:PROC
EXTRN	_Query_perf_frequency:PROC
EXTRN	_Mbrtowc:PROC
EXTRN	__imp_?_Getcvt@_Locinfo@std@@QEBA?AU_Cvtvec@@XZ:PROC
EXTRN	__imp_?_W_Getdays@_Locinfo@std@@QEBAPEBGXZ:PROC
EXTRN	__imp_?_W_Getmonths@_Locinfo@std@@QEBAPEBGXZ:PROC
EXTRN	__imp_?sputc@?$basic_streambuf@DU?$char_traits@D@std@@@std@@QEAAHD@Z:PROC
EXTRN	__imp_?sputn@?$basic_streambuf@DU?$char_traits@D@std@@@std@@QEAA_JPEBD_J@Z:PROC
EXTRN	__imp_?setstate@?$basic_ios@DU?$char_traits@D@std@@@std@@QEAAXH_N@Z:PROC
EXTRN	__imp_?widen@?$basic_ios@DU?$char_traits@D@std@@@std@@QEBADD@Z:PROC
EXTRN	__imp_?_Osfx@?$basic_ostream@DU?$char_traits@D@std@@@std@@QEAAXXZ:PROC
EXTRN	__imp_??6?$basic_ostream@DU?$char_traits@D@std@@@std@@QEAAAEAV01@P6AAEAV01@AEAV01@@Z@Z:PROC
EXTRN	__imp_??6?$basic_ostream@DU?$char_traits@D@std@@@std@@QEAAAEAV01@P6AAEAVios_base@1@AEAV21@@Z@Z:PROC
EXTRN	__imp_??6?$basic_ostream@DU?$char_traits@D@std@@@std@@QEAAAEAV01@N@Z:PROC
EXTRN	__imp_?put@?$basic_ostream@DU?$char_traits@D@std@@@std@@QEAAAEAV12@D@Z:PROC
EXTRN	__imp_?flush@?$basic_ostream@DU?$char_traits@D@std@@@std@@QEAAAEAV12@XZ:PROC
EXTRN	?setprecision@std@@YA?AU?$_Smanip@_J@1@_J@Z:PROC ; std::setprecision
EXTRN	CalcZ_Aavx:PROC
EXTRN	__CxxFrameHandler4:PROC
EXTRN	__GSHandlerCheck:PROC
EXTRN	__security_check_cookie:PROC
EXTRN	memcpy:PROC
EXTRN	__imp_?cout@std@@3V?$basic_ostream@DU?$char_traits@D@std@@@1@A:BYTE
EXTRN	__security_cookie:QWORD
EXTRN	_fltused:DWORD
;	COMDAT pdata
pdata	SEGMENT
$pdata$wmemcpy DD imagerel $LN4
	DD	imagerel $LN4+26
	DD	imagerel $unwind$wmemcpy
pdata	ENDS
;	COMDAT pdata
pdata	SEGMENT
$pdata$??$_Maklocstr@_W@std@@YAPEA_WPEBDPEA_WAEBU_Cvtvec@@@Z DD imagerel $LN28
	DD	imagerel $LN28+286
	DD	imagerel $unwind$??$_Maklocstr@_W@std@@YAPEA_WPEBDPEA_WAEBU_Cvtvec@@@Z
pdata	ENDS
;	COMDAT pdata
pdata	SEGMENT
$pdata$?_Maklocwcs@std@@YAPEA_WPEB_W@Z DD imagerel $LN10
	DD	imagerel $LN10+107
	DD	imagerel $unwind$?_Maklocwcs@std@@YAPEA_WPEB_W@Z
pdata	ENDS
;	COMDAT pdata
pdata	SEGMENT
$pdata$??$_Maklocstr@D@std@@YAPEADPEBDPEADAEBU_Cvtvec@@@Z DD imagerel $LN15
	DD	imagerel $LN15+113
	DD	imagerel $unwind$??$_Maklocstr@D@std@@YAPEADPEBDPEADAEBU_Cvtvec@@@Z
pdata	ENDS
;	COMDAT pdata
pdata	SEGMENT
$pdata$??$_Getvals@_W@?$time_get@DV?$istreambuf_iterator@DU?$char_traits@D@std@@@std@@@std@@IEAAX_WAEBV_Locinfo@1@@Z DD imagerel $LN20
	DD	imagerel $LN20+179
	DD	imagerel $unwind$??$_Getvals@_W@?$time_get@DV?$istreambuf_iterator@DU?$char_traits@D@std@@@std@@@std@@IEAAX_WAEBV_Locinfo@1@@Z
pdata	ENDS
;	COMDAT pdata
pdata	SEGMENT
$pdata$??$_Getvals@_W@?$time_get@_WV?$istreambuf_iterator@_WU?$char_traits@_W@std@@@std@@@std@@IEAAX_WAEBV_Locinfo@1@@Z DD imagerel $LN14
	DD	imagerel $LN14+179
	DD	imagerel $unwind$??$_Getvals@_W@?$time_get@_WV?$istreambuf_iterator@_WU?$char_traits@_W@std@@@std@@@std@@IEAAX_WAEBV_Locinfo@1@@Z
pdata	ENDS
;	COMDAT pdata
pdata	SEGMENT
$pdata$?CalcZ_Cpp@@YAXPEAMPEBM1_K@Z DD imagerel $LN33
	DD	imagerel $LN33+30
	DD	imagerel $unwind$?CalcZ_Cpp@@YAXPEAMPEBM1_K@Z
pdata	ENDS
;	COMDAT pdata
pdata	SEGMENT
$pdata$6$?CalcZ_Cpp@@YAXPEAMPEBM1_K@Z DD imagerel $LN33+30
	DD	imagerel $LN33+482
	DD	imagerel $chain$6$?CalcZ_Cpp@@YAXPEAMPEBM1_K@Z
pdata	ENDS
;	COMDAT pdata
pdata	SEGMENT
$pdata$7$?CalcZ_Cpp@@YAXPEAMPEBM1_K@Z DD imagerel $LN33+482
	DD	imagerel $LN33+490
	DD	imagerel $chain$7$?CalcZ_Cpp@@YAXPEAMPEBM1_K@Z
pdata	ENDS
;	COMDAT pdata
pdata	SEGMENT
$pdata$?CalcZ_Iavx@@YAXPEAMPEBM1_K@Z DD imagerel $LN38
	DD	imagerel $LN38+100
	DD	imagerel $unwind$?CalcZ_Iavx@@YAXPEAMPEBM1_K@Z
pdata	ENDS
;	COMDAT pdata
pdata	SEGMENT
$pdata$4$?CalcZ_Iavx@@YAXPEAMPEBM1_K@Z DD imagerel $LN38+100
	DD	imagerel $LN38+566
	DD	imagerel $chain$4$?CalcZ_Iavx@@YAXPEAMPEBM1_K@Z
pdata	ENDS
;	COMDAT pdata
pdata	SEGMENT
$pdata$5$?CalcZ_Iavx@@YAXPEAMPEBM1_K@Z DD imagerel $LN38+566
	DD	imagerel $LN38+576
	DD	imagerel $chain$5$?CalcZ_Iavx@@YAXPEAMPEBM1_K@Z
pdata	ENDS
;	COMDAT pdata
pdata	SEGMENT
$pdata$?now@steady_clock@chrono@std@@SA?AV?$time_point@Usteady_clock@chrono@std@@V?$duration@_JU?$ratio@$00$0DLJKMKAA@@std@@@23@@23@XZ DD imagerel $LN9
	DD	imagerel $LN9+73
	DD	imagerel $unwind$?now@steady_clock@chrono@std@@SA?AV?$time_point@Usteady_clock@chrono@std@@V?$duration@_JU?$ratio@$00$0DLJKMKAA@@std@@@23@@23@XZ
pdata	ENDS
;	COMDAT pdata
pdata	SEGMENT
$pdata$main DD	imagerel $LN140
	DD	imagerel $LN140+1002
	DD	imagerel $unwind$main
pdata	ENDS
;	COMDAT pdata
pdata	SEGMENT
$pdata$??$?6U?$char_traits@D@std@@@std@@YAAEAV?$basic_ostream@DU?$char_traits@D@std@@@0@AEAV10@PEBD@Z DD imagerel $LN99
	DD	imagerel $LN99+457
	DD	imagerel $unwind$??$?6U?$char_traits@D@std@@@std@@YAAEAV?$basic_ostream@DU?$char_traits@D@std@@@0@AEAV10@PEBD@Z
pdata	ENDS
;	COMDAT pdata
pdata	SEGMENT
$pdata$?catch$4@?0???$?6U?$char_traits@D@std@@@std@@YAAEAV?$basic_ostream@DU?$char_traits@D@std@@@0@AEAV10@PEBD@Z@4HA DD imagerel ?catch$4@?0???$?6U?$char_traits@D@std@@@std@@YAAEAV?$basic_ostream@DU?$char_traits@D@std@@@0@AEAV10@PEBD@Z@4HA
	DD	imagerel ?catch$4@?0???$?6U?$char_traits@D@std@@@std@@YAAEAV?$basic_ostream@DU?$char_traits@D@std@@@0@AEAV10@PEBD@Z@4HA+59
	DD	imagerel $unwind$?catch$4@?0???$?6U?$char_traits@D@std@@@std@@YAAEAV?$basic_ostream@DU?$char_traits@D@std@@@0@AEAV10@PEBD@Z@4HA
pdata	ENDS
;	COMDAT pdata
pdata	SEGMENT
$pdata$??$?6DU?$char_traits@D@std@@_J@std@@YAAEAV?$basic_ostream@DU?$char_traits@D@std@@@0@AEAV10@AEBU?$_Smanip@_J@0@@Z DD imagerel $LN4
	DD	imagerel $LN4+38
	DD	imagerel $unwind$??$?6DU?$char_traits@D@std@@_J@std@@YAAEAV?$basic_ostream@DU?$char_traits@D@std@@@0@AEAV10@AEBU?$_Smanip@_J@0@@Z
pdata	ENDS
;	COMDAT pdata
pdata	SEGMENT
$pdata$??$endl@DU?$char_traits@D@std@@@std@@YAAEAV?$basic_ostream@DU?$char_traits@D@std@@@0@AEAV10@@Z DD imagerel $LN4
	DD	imagerel $LN4+57
	DD	imagerel $unwind$??$endl@DU?$char_traits@D@std@@@std@@YAAEAV?$basic_ostream@DU?$char_traits@D@std@@@0@AEAV10@@Z
pdata	ENDS
;	COMDAT pdata
pdata	SEGMENT
$pdata$??0_Sentry_base@?$basic_ostream@DU?$char_traits@D@std@@@std@@QEAA@AEAV12@@Z DD imagerel $LN8
	DD	imagerel $LN8+44
	DD	imagerel $unwind$??0_Sentry_base@?$basic_ostream@DU?$char_traits@D@std@@@std@@QEAA@AEAV12@@Z
pdata	ENDS
;	COMDAT pdata
pdata	SEGMENT
$pdata$??1_Sentry_base@?$basic_ostream@DU?$char_traits@D@std@@@std@@QEAA@XZ DD imagerel $LN8
	DD	imagerel $LN8+36
	DD	imagerel $unwind$??1_Sentry_base@?$basic_ostream@DU?$char_traits@D@std@@@std@@QEAA@XZ
pdata	ENDS
;	COMDAT pdata
pdata	SEGMENT
$pdata$??0sentry@?$basic_ostream@DU?$char_traits@D@std@@@std@@QEAA@AEAV12@@Z DD imagerel $LN24
	DD	imagerel $LN24+122
	DD	imagerel $unwind$??0sentry@?$basic_ostream@DU?$char_traits@D@std@@@std@@QEAA@AEAV12@@Z
pdata	ENDS
;	COMDAT pdata
pdata	SEGMENT
$pdata$??1sentry@?$basic_ostream@DU?$char_traits@D@std@@@std@@QEAA@XZ DD imagerel $LN13
	DD	imagerel $LN13+61
	DD	imagerel $unwind$??1sentry@?$basic_ostream@DU?$char_traits@D@std@@@std@@QEAA@XZ
pdata	ENDS
;	COMDAT __zmm@40000000400000004000000040000000400000004000000040000000400000004000000040000000400000004000000040000000400000004000000040000000
CONST	SEGMENT
__zmm@40000000400000004000000040000000400000004000000040000000400000004000000040000000400000004000000040000000400000004000000040000000 DB 00H
	DB	00H, 00H, '@', 00H, 00H, 00H, '@', 00H, 00H, 00H, '@', 00H, 00H
	DB	00H, '@', 00H, 00H, 00H, '@', 00H, 00H, 00H, '@', 00H, 00H, 00H
	DB	'@', 00H, 00H, 00H, '@', 00H, 00H, 00H, '@', 00H, 00H, 00H, '@'
	DB	00H, 00H, 00H, '@', 00H, 00H, 00H, '@', 00H, 00H, 00H, '@', 00H
	DB	00H, 00H, '@', 00H, 00H, 00H, '@', 00H, 00H, 00H, '@'
CONST	ENDS
;	COMDAT __zmm@3f8000003f8000003f8000003f8000003f8000003f8000003f8000003f8000003f8000003f8000003f8000003f8000003f8000003f8000003f8000003f800000
CONST	SEGMENT
__zmm@3f8000003f8000003f8000003f8000003f8000003f8000003f8000003f8000003f8000003f8000003f8000003f8000003f8000003f8000003f8000003f800000 DB 00H
	DB	00H, 080H, '?', 00H, 00H, 080H, '?', 00H, 00H, 080H, '?', 00H, 00H
	DB	080H, '?', 00H, 00H, 080H, '?', 00H, 00H, 080H, '?', 00H, 00H, 080H
	DB	'?', 00H, 00H, 080H, '?', 00H, 00H, 080H, '?', 00H, 00H, 080H, '?'
	DB	00H, 00H, 080H, '?', 00H, 00H, 080H, '?', 00H, 00H, 080H, '?', 00H
	DB	00H, 080H, '?', 00H, 00H, 080H, '?', 00H, 00H, 080H, '?'
CONST	ENDS
;	COMDAT __real@3e112e0be826d695
CONST	SEGMENT
__real@3e112e0be826d695 DQ 03e112e0be826d695r	; 1e-09
CONST	ENDS
;	COMDAT ??_C@_1BK@MHIKGOKE@?$AA?3?$AAA?$AAM?$AA?3?$AAa?$AAm?$AA?3?$AAP?$AAM?$AA?3?$AAp?$AAm@
CONST	SEGMENT
??_C@_1BK@MHIKGOKE@?$AA?3?$AAA?$AAM?$AA?3?$AAa?$AAm?$AA?3?$AAP?$AAM?$AA?3?$AAp?$AAm@ DB ':'
	DB	00H, 'A', 00H, 'M', 00H, ':', 00H, 'a', 00H, 'm', 00H, ':', 00H
	DB	'P', 00H, 'M', 00H, ':', 00H, 'p', 00H, 'm', 00H, 00H, 00H ; `string'
CONST	ENDS
;	COMDAT ??_C@_0CB@KGIIJFCA@Time?5taken?5by?5Aavx?5program?5is?5?3@
CONST	SEGMENT
??_C@_0CB@KGIIJFCA@Time?5taken?5by?5Aavx?5program?5is?5?3@ DB 'Time taken'
	DB	' by Aavx program is : ', 00H		; `string'
CONST	ENDS
;	COMDAT ??_C@_0CB@NOJKNLMI@Time?5taken?5by?5Cpp?5program?5is?5?5?3@
CONST	SEGMENT
??_C@_0CB@NOJKNLMI@Time?5taken?5by?5Cpp?5program?5is?5?5?3@ DB 'Time take'
	DB	'n by Cpp program is  : ', 00H		; `string'
CONST	ENDS
;	COMDAT ??_C@_0CB@KPCJIIKF@Time?5taken?5by?5Iavx?5program?5is?5?3@
CONST	SEGMENT
??_C@_0CB@KPCJIIKF@Time?5taken?5by?5Iavx?5program?5is?5?3@ DB 'Time taken'
	DB	' by Iavx program is : ', 00H		; `string'
CONST	ENDS
;	COMDAT ??_C@_04IBFKBJDL@?5sec@
CONST	SEGMENT
??_C@_04IBFKBJDL@?5sec@ DB ' sec', 00H			; `string'
CONST	ENDS
;	COMDAT xdata
xdata	SEGMENT
$ip2state$??1sentry@?$basic_ostream@DU?$char_traits@D@std@@@std@@QEAA@XZ DB 04H
	DB	'*'
	DB	00H
	DB	'<'
	DB	02H
xdata	ENDS
;	COMDAT xdata
xdata	SEGMENT
$stateUnwindMap$??1sentry@?$basic_ostream@DU?$char_traits@D@std@@@std@@QEAA@XZ DB 02H
	DB	0eH
	DD	imagerel __std_terminate
xdata	ENDS
;	COMDAT xdata
xdata	SEGMENT
$cppxdata$??1sentry@?$basic_ostream@DU?$char_traits@D@std@@@std@@QEAA@XZ DB 068H
	DD	imagerel $stateUnwindMap$??1sentry@?$basic_ostream@DU?$char_traits@D@std@@@std@@QEAA@XZ
	DD	imagerel $ip2state$??1sentry@?$basic_ostream@DU?$char_traits@D@std@@@std@@QEAA@XZ
xdata	ENDS
;	COMDAT xdata
xdata	SEGMENT
$unwind$??1sentry@?$basic_ostream@DU?$char_traits@D@std@@@std@@QEAA@XZ DD 020619H
	DD	030023206H
	DD	imagerel __CxxFrameHandler4
	DD	imagerel $cppxdata$??1sentry@?$basic_ostream@DU?$char_traits@D@std@@@std@@QEAA@XZ
xdata	ENDS
;	COMDAT xdata
xdata	SEGMENT
$ip2state$??0sentry@?$basic_ostream@DU?$char_traits@D@std@@@std@@QEAA@AEAV12@@Z DB 04H
	DB	'X'
	DB	00H
	DB	'H'
	DB	02H
xdata	ENDS
;	COMDAT xdata
xdata	SEGMENT
$stateUnwindMap$??0sentry@?$basic_ostream@DU?$char_traits@D@std@@@std@@QEAA@AEAV12@@Z DB 02H
	DB	0cH
	DD	imagerel ??1_Sentry_base@?$basic_ostream@DU?$char_traits@D@std@@@std@@QEAA@XZ
	DB	060H
xdata	ENDS
;	COMDAT xdata
xdata	SEGMENT
$cppxdata$??0sentry@?$basic_ostream@DU?$char_traits@D@std@@@std@@QEAA@AEAV12@@Z DB 028H
	DD	imagerel $stateUnwindMap$??0sentry@?$basic_ostream@DU?$char_traits@D@std@@@std@@QEAA@AEAV12@@Z
	DD	imagerel $ip2state$??0sentry@?$basic_ostream@DU?$char_traits@D@std@@@std@@QEAA@AEAV12@@Z
xdata	ENDS
;	COMDAT xdata
xdata	SEGMENT
$unwind$??0sentry@?$basic_ostream@DU?$char_traits@D@std@@@std@@QEAA@AEAV12@@Z DD 040f11H
	DD	07340fH
	DD	0700b320fH
	DD	imagerel __CxxFrameHandler4
	DD	imagerel $cppxdata$??0sentry@?$basic_ostream@DU?$char_traits@D@std@@@std@@QEAA@AEAV12@@Z
xdata	ENDS
;	COMDAT xdata
xdata	SEGMENT
$ip2state$??1_Sentry_base@?$basic_ostream@DU?$char_traits@D@std@@@std@@QEAA@XZ DB 02H
	DB	'6'
	DB	00H
xdata	ENDS
;	COMDAT xdata
xdata	SEGMENT
$cppxdata$??1_Sentry_base@?$basic_ostream@DU?$char_traits@D@std@@@std@@QEAA@XZ DB 060H
	DD	imagerel $ip2state$??1_Sentry_base@?$basic_ostream@DU?$char_traits@D@std@@@std@@QEAA@XZ
xdata	ENDS
;	COMDAT xdata
xdata	SEGMENT
$unwind$??1_Sentry_base@?$basic_ostream@DU?$char_traits@D@std@@@std@@QEAA@XZ DD 010419H
	DD	04204H
	DD	imagerel __CxxFrameHandler4
	DD	imagerel $cppxdata$??1_Sentry_base@?$basic_ostream@DU?$char_traits@D@std@@@std@@QEAA@XZ
xdata	ENDS
;	COMDAT xdata
xdata	SEGMENT
$unwind$??0_Sentry_base@?$basic_ostream@DU?$char_traits@D@std@@@std@@QEAA@AEAV12@@Z DD 020601H
	DD	030023206H
xdata	ENDS
;	COMDAT xdata
xdata	SEGMENT
$unwind$??$endl@DU?$char_traits@D@std@@@std@@YAAEAV?$basic_ostream@DU?$char_traits@D@std@@@0@AEAV10@@Z DD 020601H
	DD	030023206H
xdata	ENDS
;	COMDAT xdata
xdata	SEGMENT
$unwind$??$?6DU?$char_traits@D@std@@_J@std@@YAAEAV?$basic_ostream@DU?$char_traits@D@std@@@0@AEAV10@AEBU?$_Smanip@_J@0@@Z DD 020601H
	DD	030023206H
xdata	ENDS
;	COMDAT voltbl
voltbl	SEGMENT
_volmd	DB	00H
voltbl	ENDS
;	COMDAT xdata
xdata	SEGMENT
$unwind$?catch$4@?0???$?6U?$char_traits@D@std@@@std@@YAAEAV?$basic_ostream@DU?$char_traits@D@std@@@0@AEAV10@PEBD@Z@4HA DD 020a01H
	DD	05006320aH
xdata	ENDS
;	COMDAT xdata
xdata	SEGMENT
$ip2state$??$?6U?$char_traits@D@std@@@std@@YAAEAV?$basic_ostream@DU?$char_traits@D@std@@@0@AEAV10@PEBD@Z DB 0eH
	DB	0e2H
	DB	00H
	DB	'T'
	DB	02H
	DB	0b6H
	DB	06H
	DB	0d8H
	DB	04H
	DB	'L'
	DB	0aH
	DB	'&'
	DB	0cH
	DB	'2'
	DB	00H
xdata	ENDS
;	COMDAT xdata
xdata	SEGMENT
$handlerMap$??$?6U?$char_traits@D@std@@@std@@YAAEAV?$basic_ostream@DU?$char_traits@D@std@@@0@AEAV10@PEBD@Z DB 02H
	DB	011H
	DB	080H
	DD	imagerel ?catch$4@?0???$?6U?$char_traits@D@std@@@std@@YAAEAV?$basic_ostream@DU?$char_traits@D@std@@@0@AEAV10@PEBD@Z@4HA
	DB	091H, 05H
xdata	ENDS
;	COMDAT xdata
xdata	SEGMENT
$tryMap$??$?6U?$char_traits@D@std@@@std@@YAAEAV?$basic_ostream@DU?$char_traits@D@std@@@0@AEAV10@PEBD@Z DB 02H
	DB	04H
	DB	04H
	DB	06H
	DD	imagerel $handlerMap$??$?6U?$char_traits@D@std@@@std@@YAAEAV?$basic_ostream@DU?$char_traits@D@std@@@0@AEAV10@PEBD@Z
xdata	ENDS
;	COMDAT xdata
xdata	SEGMENT
$stateUnwindMap$??$?6U?$char_traits@D@std@@@std@@YAAEAV?$basic_ostream@DU?$char_traits@D@std@@@0@AEAV10@PEBD@Z DB 0cH
	DB	0aH
	DD	imagerel ??1_Sentry_base@?$basic_ostream@DU?$char_traits@D@std@@@std@@QEAA@XZ
	DB	040H
	DB	03aH
	DD	imagerel ??1sentry@?$basic_ostream@DU?$char_traits@D@std@@@std@@QEAA@XZ
	DB	040H
	DB	030H
	DB	038H
	DB	07eH
	DD	imagerel __std_terminate
	DB	02eH
	DD	imagerel __std_terminate
xdata	ENDS
;	COMDAT xdata
xdata	SEGMENT
$cppxdata$??$?6U?$char_traits@D@std@@@std@@YAAEAV?$basic_ostream@DU?$char_traits@D@std@@@0@AEAV10@PEBD@Z DB 038H
	DD	imagerel $stateUnwindMap$??$?6U?$char_traits@D@std@@@std@@YAAEAV?$basic_ostream@DU?$char_traits@D@std@@@0@AEAV10@PEBD@Z
	DD	imagerel $tryMap$??$?6U?$char_traits@D@std@@@std@@YAAEAV?$basic_ostream@DU?$char_traits@D@std@@@0@AEAV10@PEBD@Z
	DD	imagerel $ip2state$??$?6U?$char_traits@D@std@@@std@@YAAEAV?$basic_ostream@DU?$char_traits@D@std@@@0@AEAV10@PEBD@Z
xdata	ENDS
;	COMDAT xdata
xdata	SEGMENT
$unwind$??$?6U?$char_traits@D@std@@@std@@YAAEAV?$basic_ostream@DU?$char_traits@D@std@@@0@AEAV10@PEBD@Z DD 081619H
	DD	0d3416H
	DD	0f0125216H
	DD	0c00ee010H
	DD	0600b700cH
	DD	imagerel __CxxFrameHandler4
	DD	imagerel $cppxdata$??$?6U?$char_traits@D@std@@@std@@YAAEAV?$basic_ostream@DU?$char_traits@D@std@@@0@AEAV10@PEBD@Z
xdata	ENDS
;	COMDAT xdata
xdata	SEGMENT
$unwind$main DD	0a1801H
	DD	0c6418H
	DD	0b5418H
	DD	0a3418H
	DD	0f0145218H
	DD	07010e012H
xdata	ENDS
;	COMDAT xdata
xdata	SEGMENT
$unwind$?now@steady_clock@chrono@std@@SA?AV?$time_point@Usteady_clock@chrono@std@@V?$duration@_JU?$ratio@$00$0DLJKMKAA@@std@@@23@@23@XZ DD 040a01H
	DD	06340aH
	DD	07006320aH
xdata	ENDS
;	COMDAT xdata
xdata	SEGMENT
$chain$5$?CalcZ_Iavx@@YAXPEAMPEBM1_K@Z DD 021H
	DD	imagerel $LN38
	DD	imagerel $LN38+100
	DD	imagerel $unwind$?CalcZ_Iavx@@YAXPEAMPEBM1_K@Z
xdata	ENDS
;	COMDAT xdata
xdata	SEGMENT
$chain$4$?CalcZ_Iavx@@YAXPEAMPEBM1_K@Z DD 0a1821H
	DD	0f418H
	DD	01e414H
	DD	02d40fH
	DD	09c40aH
	DD	086405H
	DD	imagerel $LN38
	DD	imagerel $LN38+100
	DD	imagerel $unwind$?CalcZ_Iavx@@YAXPEAMPEBM1_K@Z
xdata	ENDS
;	COMDAT xdata
xdata	SEGMENT
$unwind$?CalcZ_Iavx@@YAXPEAMPEBM1_K@Z DD 031001H
	DD	0700c2210H
	DD	0300bH
xdata	ENDS
;	COMDAT xdata
xdata	SEGMENT
$chain$7$?CalcZ_Cpp@@YAXPEAMPEBM1_K@Z DD 021H
	DD	imagerel $LN33
	DD	imagerel $LN33+30
	DD	imagerel $unwind$?CalcZ_Cpp@@YAXPEAMPEBM1_K@Z
xdata	ENDS
;	COMDAT xdata
xdata	SEGMENT
$chain$6$?CalcZ_Cpp@@YAXPEAMPEBM1_K@Z DD 0e1c21H
	DD	0f41cH
	DD	01e418H
	DD	02d414H
	DD	03c410H
	DD	04740cH
	DD	096408H
	DD	083404H
	DD	imagerel $LN33
	DD	imagerel $LN33+30
	DD	imagerel $unwind$?CalcZ_Cpp@@YAXPEAMPEBM1_K@Z
xdata	ENDS
;	COMDAT xdata
xdata	SEGMENT
$unwind$?CalcZ_Cpp@@YAXPEAMPEBM1_K@Z DD 010f01H
	DD	0420fH
xdata	ENDS
;	COMDAT xdata
xdata	SEGMENT
$unwind$??$_Getvals@_W@?$time_get@_WV?$istreambuf_iterator@_WU?$char_traits@_W@std@@@std@@@std@@IEAAX_WAEBV_Locinfo@1@@Z DD 040a01H
	DD	0c340aH
	DD	07006920aH
xdata	ENDS
;	COMDAT xdata
xdata	SEGMENT
$unwind$??$_Getvals@_W@?$time_get@DV?$istreambuf_iterator@DU?$char_traits@D@std@@@std@@@std@@IEAAX_WAEBV_Locinfo@1@@Z DD 040a01H
	DD	0c340aH
	DD	07006920aH
xdata	ENDS
;	COMDAT xdata
xdata	SEGMENT
$unwind$??$_Maklocstr@D@std@@YAPEADPEBDPEADAEBU_Cvtvec@@@Z DD 060f01H
	DD	07640fH
	DD	06340fH
	DD	0700b320fH
xdata	ENDS
;	COMDAT xdata
xdata	SEGMENT
$unwind$?_Maklocwcs@std@@YAPEA_WPEB_W@Z DD 060f01H
	DD	07640fH
	DD	06340fH
	DD	0700b320fH
xdata	ENDS
;	COMDAT xdata
xdata	SEGMENT
$unwind$??$_Maklocstr@_W@std@@YAPEA_WPEBDPEA_WAEBU_Cvtvec@@@Z DD 0a2519H
	DD	0135416H
	DD	0113416H
	DD	0f0129216H
	DD	0c00ee010H
	DD	0600b700cH
	DD	imagerel __GSHandlerCheck
	DD	048H
xdata	ENDS
;	COMDAT xdata
xdata	SEGMENT
$unwind$wmemcpy DD 020601H
	DD	030023206H
xdata	ENDS
; Function compile flags: /Ogtpy
; File C:\Program Files (x86)\Microsoft Visual Studio\2019\Community\VC\Tools\MSVC\14.29.30133\include\ostream
; File C:\Program Files (x86)\Microsoft Visual Studio\2019\Community\VC\Tools\MSVC\14.29.30133\include\ios
; File C:\Program Files (x86)\Microsoft Visual Studio\2019\Community\VC\Tools\MSVC\14.29.30133\include\ostream
;	COMDAT ??1sentry@?$basic_ostream@DU?$char_traits@D@std@@@std@@QEAA@XZ
_TEXT	SEGMENT
this$ = 48
??1sentry@?$basic_ostream@DU?$char_traits@D@std@@@std@@QEAA@XZ PROC ; std::basic_ostream<char,std::char_traits<char> >::sentry::~sentry, COMDAT

; 109  :         __CLR_OR_THIS_CALL ~sentry() noexcept {

$LN13:
  00000	40 53		 push	 rbx
  00002	48 83 ec 20	 sub	 rsp, 32			; 00000020H
  00006	48 8b d9	 mov	 rbx, rcx

; 110  : #if !_HAS_EXCEPTIONS
; 111  :             const bool _Zero_uncaught_exceptions = true;
; 112  : #elif _HAS_DEPRECATED_UNCAUGHT_EXCEPTION
; 113  :             const bool _Zero_uncaught_exceptions = !_STD uncaught_exception(); // TRANSITION, ArchivedOS-12000909

  00009	e8 00 00 00 00	 call	 ?uncaught_exception@std@@YA_NXZ ; std::uncaught_exception

; 114  : #else // ^^^ _HAS_DEPRECATED_UNCAUGHT_EXCEPTION / !_HAS_DEPRECATED_UNCAUGHT_EXCEPTION vvv
; 115  :             const bool _Zero_uncaught_exceptions = _STD uncaught_exceptions() == 0;
; 116  : #endif // !_HAS_DEPRECATED_UNCAUGHT_EXCEPTION
; 117  : 
; 118  :             if (_Zero_uncaught_exceptions) {

  0000e	84 c0		 test	 al, al
  00010	75 0a		 jne	 SHORT $LN2@sentry

; 119  :                 this->_Myostr._Osfx();

  00012	48 8b 0b	 mov	 rcx, QWORD PTR [rbx]
  00015	ff 15 00 00 00
	00		 call	 QWORD PTR __imp_?_Osfx@?$basic_ostream@DU?$char_traits@D@std@@@std@@QEAAXXZ
  0001b	90		 npad	 1
$LN2@sentry:

; 79   :             const auto _Rdbuf = _Myostr.rdbuf();

  0001c	48 8b 13	 mov	 rdx, QWORD PTR [rbx]
  0001f	48 8b 02	 mov	 rax, QWORD PTR [rdx]
  00022	48 63 48 04	 movsxd	 rcx, DWORD PTR [rax+4]
; File C:\Program Files (x86)\Microsoft Visual Studio\2019\Community\VC\Tools\MSVC\14.29.30133\include\ios

; 80   :         return _Mystrbuf;

  00026	48 8b 4c 11 48	 mov	 rcx, QWORD PTR [rcx+rdx+72]
; File C:\Program Files (x86)\Microsoft Visual Studio\2019\Community\VC\Tools\MSVC\14.29.30133\include\ostream

; 80   :             if (_Rdbuf) {

  0002b	48 85 c9	 test	 rcx, rcx
  0002e	74 07		 je	 SHORT $LN10@sentry

; 81   :                 _Rdbuf->_Unlock();

  00030	48 8b 01	 mov	 rax, QWORD PTR [rcx]
  00033	ff 50 10	 call	 QWORD PTR [rax+16]
  00036	90		 npad	 1
$LN10@sentry:

; 120  :             }
; 121  :         }

  00037	48 83 c4 20	 add	 rsp, 32			; 00000020H
  0003b	5b		 pop	 rbx
  0003c	c3		 ret	 0
??1sentry@?$basic_ostream@DU?$char_traits@D@std@@@std@@QEAA@XZ ENDP ; std::basic_ostream<char,std::char_traits<char> >::sentry::~sentry
_TEXT	ENDS
; Function compile flags: /Ogtpy
; File C:\Program Files (x86)\Microsoft Visual Studio\2019\Community\VC\Tools\MSVC\14.29.30133\include\ostream
; File C:\Program Files (x86)\Microsoft Visual Studio\2019\Community\VC\Tools\MSVC\14.29.30133\include\ios
; File C:\Program Files (x86)\Microsoft Visual Studio\2019\Community\VC\Tools\MSVC\14.29.30133\include\ostream
;	COMDAT ??1_Sentry_base@?$basic_ostream@DU?$char_traits@D@std@@@std@@QEAA@XZ
_TEXT	SEGMENT
this$ = 48
??1_Sentry_base@?$basic_ostream@DU?$char_traits@D@std@@@std@@QEAA@XZ PROC ; std::basic_ostream<char,std::char_traits<char> >::_Sentry_base::~_Sentry_base, COMDAT

; 78   :         __CLR_OR_THIS_CALL ~_Sentry_base() noexcept { // destroy after unlocking

$LN8:
  00000	48 83 ec 28	 sub	 rsp, 40			; 00000028H

; 79   :             const auto _Rdbuf = _Myostr.rdbuf();

  00004	48 8b 11	 mov	 rdx, QWORD PTR [rcx]
  00007	48 8b 02	 mov	 rax, QWORD PTR [rdx]
  0000a	48 63 48 04	 movsxd	 rcx, DWORD PTR [rax+4]
; File C:\Program Files (x86)\Microsoft Visual Studio\2019\Community\VC\Tools\MSVC\14.29.30133\include\ios

; 80   :         return _Mystrbuf;

  0000e	48 8b 4c 11 48	 mov	 rcx, QWORD PTR [rcx+rdx+72]
; File C:\Program Files (x86)\Microsoft Visual Studio\2019\Community\VC\Tools\MSVC\14.29.30133\include\ostream

; 80   :             if (_Rdbuf) {

  00013	48 85 c9	 test	 rcx, rcx
  00016	74 07		 je	 SHORT $LN2@Sentry_bas

; 81   :                 _Rdbuf->_Unlock();

  00018	48 8b 01	 mov	 rax, QWORD PTR [rcx]
  0001b	ff 50 10	 call	 QWORD PTR [rax+16]
  0001e	90		 npad	 1
$LN2@Sentry_bas:

; 82   :             }
; 83   :         }

  0001f	48 83 c4 28	 add	 rsp, 40			; 00000028H
  00023	c3		 ret	 0
??1_Sentry_base@?$basic_ostream@DU?$char_traits@D@std@@@std@@QEAA@XZ ENDP ; std::basic_ostream<char,std::char_traits<char> >::_Sentry_base::~_Sentry_base
_TEXT	ENDS
; Function compile flags: /Ogtpy
; File C:\Program Files (x86)\Microsoft Visual Studio\2019\Community\VC\Tools\MSVC\14.29.30133\include\ostream
;	COMDAT ??$endl@DU?$char_traits@D@std@@@std@@YAAEAV?$basic_ostream@DU?$char_traits@D@std@@@0@AEAV10@@Z
_TEXT	SEGMENT
_Ostr$ = 48
??$endl@DU?$char_traits@D@std@@@std@@YAAEAV?$basic_ostream@DU?$char_traits@D@std@@@0@AEAV10@@Z PROC ; std::endl<char,std::char_traits<char> >, COMDAT

; 978  :     basic_ostream<_Elem, _Traits>& _Ostr) { // insert newline and flush stream

$LN4:
  00000	40 53		 push	 rbx
  00002	48 83 ec 20	 sub	 rsp, 32			; 00000020H

; 979  :     _Ostr.put(_Ostr.widen('\n'));

  00006	48 8b 01	 mov	 rax, QWORD PTR [rcx]
  00009	48 8b d9	 mov	 rbx, rcx
  0000c	b2 0a		 mov	 dl, 10
  0000e	48 63 48 04	 movsxd	 rcx, DWORD PTR [rax+4]
  00012	48 03 cb	 add	 rcx, rbx
  00015	ff 15 00 00 00
	00		 call	 QWORD PTR __imp_?widen@?$basic_ios@DU?$char_traits@D@std@@@std@@QEBADD@Z
  0001b	0f b6 d0	 movzx	 edx, al
  0001e	48 8b cb	 mov	 rcx, rbx
  00021	ff 15 00 00 00
	00		 call	 QWORD PTR __imp_?put@?$basic_ostream@DU?$char_traits@D@std@@@std@@QEAAAEAV12@D@Z

; 980  :     _Ostr.flush();

  00027	48 8b cb	 mov	 rcx, rbx
  0002a	ff 15 00 00 00
	00		 call	 QWORD PTR __imp_?flush@?$basic_ostream@DU?$char_traits@D@std@@@std@@QEAAAEAV12@XZ

; 981  :     return _Ostr;

  00030	48 8b c3	 mov	 rax, rbx

; 982  : }

  00033	48 83 c4 20	 add	 rsp, 32			; 00000020H
  00037	5b		 pop	 rbx
  00038	c3		 ret	 0
??$endl@DU?$char_traits@D@std@@@std@@YAAEAV?$basic_ostream@DU?$char_traits@D@std@@@0@AEAV10@@Z ENDP ; std::endl<char,std::char_traits<char> >
_TEXT	ENDS
; Function compile flags: /Ogtpy
; File C:\Program Files (x86)\Microsoft Visual Studio\2019\Community\VC\Tools\MSVC\14.29.30133\include\iomanip
;	COMDAT ??$?6DU?$char_traits@D@std@@_J@std@@YAAEAV?$basic_ostream@DU?$char_traits@D@std@@@0@AEAV10@AEBU?$_Smanip@_J@0@@Z
_TEXT	SEGMENT
_Ostr$ = 48
_Manip$ = 56
??$?6DU?$char_traits@D@std@@_J@std@@YAAEAV?$basic_ostream@DU?$char_traits@D@std@@@0@AEAV10@AEBU?$_Smanip@_J@0@@Z PROC ; std::operator<<<char,std::char_traits<char>,__int64>, COMDAT

; 423  :     const _Smanip<_Arg>& _Manip) { // insert by calling function with output stream and argument

$LN4:
  00000	40 53		 push	 rbx
  00002	48 83 ec 20	 sub	 rsp, 32			; 00000020H

; 424  :     (*_Manip._Pfun)(_Ostr, _Manip._Manarg);

  00006	48 8b 01	 mov	 rax, QWORD PTR [rcx]
  00009	48 8b d9	 mov	 rbx, rcx
  0000c	4c 8b c2	 mov	 r8, rdx
  0000f	48 8b 52 08	 mov	 rdx, QWORD PTR [rdx+8]
  00013	48 63 48 04	 movsxd	 rcx, DWORD PTR [rax+4]
  00017	48 03 cb	 add	 rcx, rbx
  0001a	41 ff 10	 call	 QWORD PTR [r8]

; 425  :     return _Ostr;

  0001d	48 8b c3	 mov	 rax, rbx

; 426  : }

  00020	48 83 c4 20	 add	 rsp, 32			; 00000020H
  00024	5b		 pop	 rbx
  00025	c3		 ret	 0
??$?6DU?$char_traits@D@std@@_J@std@@YAAEAV?$basic_ostream@DU?$char_traits@D@std@@@0@AEAV10@AEBU?$_Smanip@_J@0@@Z ENDP ; std::operator<<<char,std::char_traits<char>,__int64>
_TEXT	ENDS
; Function compile flags: /Ogtpy
; File C:\Program Files (x86)\Microsoft Visual Studio\2019\Community\VC\Tools\MSVC\14.29.30133\include\ostream
; File C:\Program Files (x86)\Microsoft Visual Studio\2019\Community\VC\Tools\MSVC\14.29.30133\include\xstring
; File C:\Program Files (x86)\Microsoft Visual Studio\2019\Community\VC\Tools\MSVC\14.29.30133\include\ostream
; File C:\Program Files (x86)\Microsoft Visual Studio\2019\Community\VC\Tools\MSVC\14.29.30133\include\xiosbase
; File C:\Program Files (x86)\Microsoft Visual Studio\2019\Community\VC\Tools\MSVC\14.29.30133\include\ostream
; File C:\Program Files (x86)\Microsoft Visual Studio\2019\Community\VC\Tools\MSVC\14.29.30133\include\ios
; File C:\Program Files (x86)\Microsoft Visual Studio\2019\Community\VC\Tools\MSVC\14.29.30133\include\ostream
; File C:\Program Files (x86)\Microsoft Visual Studio\2019\Community\VC\Tools\MSVC\14.29.30133\include\xiosbase
; File C:\Program Files (x86)\Microsoft Visual Studio\2019\Community\VC\Tools\MSVC\14.29.30133\include\ostream
; File C:\Program Files (x86)\Microsoft Visual Studio\2019\Community\VC\Tools\MSVC\14.29.30133\include\ios
; File C:\Program Files (x86)\Microsoft Visual Studio\2019\Community\VC\Tools\MSVC\14.29.30133\include\ostream
; File C:\Program Files (x86)\Microsoft Visual Studio\2019\Community\VC\Tools\MSVC\14.29.30133\include\xiosbase
; File C:\Program Files (x86)\Microsoft Visual Studio\2019\Community\VC\Tools\MSVC\14.29.30133\include\ostream
; File C:\Program Files (x86)\Microsoft Visual Studio\2019\Community\VC\Tools\MSVC\14.29.30133\include\xiosbase
; File C:\Program Files (x86)\Microsoft Visual Studio\2019\Community\VC\Tools\MSVC\14.29.30133\include\ostream
; File C:\Program Files (x86)\Microsoft Visual Studio\2019\Community\VC\Tools\MSVC\14.29.30133\include\xiosbase
; File C:\Program Files (x86)\Microsoft Visual Studio\2019\Community\VC\Tools\MSVC\14.29.30133\include\ostream
; File C:\Program Files (x86)\Microsoft Visual Studio\2019\Community\VC\Tools\MSVC\14.29.30133\include\ios
; File C:\Program Files (x86)\Microsoft Visual Studio\2019\Community\VC\Tools\MSVC\14.29.30133\include\ostream
;	COMDAT ??$?6U?$char_traits@D@std@@@std@@YAAEAV?$basic_ostream@DU?$char_traits@D@std@@@0@AEAV10@PEBD@Z
_TEXT	SEGMENT
_Ok$ = 32
_Ostr$ = 96
_Val$ = 104
_State$ = 112
??$?6U?$char_traits@D@std@@@std@@YAAEAV?$basic_ostream@DU?$char_traits@D@std@@@0@AEAV10@PEBD@Z PROC ; std::operator<<<std::char_traits<char> >, COMDAT

; 734  :     const char* _Val) { // insert NTBS into char stream

$LN99:
  00000	48 89 5c 24 10	 mov	 QWORD PTR [rsp+16], rbx
  00005	48 89 4c 24 08	 mov	 QWORD PTR [rsp+8], rcx
  0000a	56		 push	 rsi
  0000b	57		 push	 rdi
  0000c	41 54		 push	 r12
  0000e	41 56		 push	 r14
  00010	41 57		 push	 r15
  00012	48 83 ec 30	 sub	 rsp, 48			; 00000030H
  00016	4c 8b fa	 mov	 r15, rdx
  00019	48 8b f1	 mov	 rsi, rcx

; 735  :     using _Elem = char;
; 736  :     using _Myos = basic_ostream<_Elem, _Traits>;
; 737  : 
; 738  :     ios_base::iostate _State = ios_base::goodbit;

  0001c	33 db		 xor	 ebx, ebx
  0001e	89 5c 24 70	 mov	 DWORD PTR _State$[rsp], ebx
; File C:\Program Files (x86)\Microsoft Visual Studio\2019\Community\VC\Tools\MSVC\14.29.30133\include\xstring

; 412  :         return _CSTD strlen(reinterpret_cast<const char*>(_First));

  00022	49 c7 c6 ff ff
	ff ff		 mov	 r14, -1
  00029	0f 1f 80 00 00
	00 00		 npad	 7
$LL92@operator:
  00030	49 ff c6	 inc	 r14
  00033	42 38 1c 32	 cmp	 BYTE PTR [rdx+r14], bl
  00037	75 f7		 jne	 SHORT $LL92@operator
; File C:\Program Files (x86)\Microsoft Visual Studio\2019\Community\VC\Tools\MSVC\14.29.30133\include\ostream

; 740  :     streamsize _Pad          = _Ostr.width() <= 0 || _Ostr.width() <= _Count ? 0 : _Ostr.width() - _Count;

  00039	48 8b 09	 mov	 rcx, QWORD PTR [rcx]
  0003c	48 63 41 04	 movsxd	 rax, DWORD PTR [rcx+4]
; File C:\Program Files (x86)\Microsoft Visual Studio\2019\Community\VC\Tools\MSVC\14.29.30133\include\xiosbase

; 363  :         return _Wide;

  00040	48 8b 7c 30 28	 mov	 rdi, QWORD PTR [rax+rsi+40]
; File C:\Program Files (x86)\Microsoft Visual Studio\2019\Community\VC\Tools\MSVC\14.29.30133\include\ostream

; 740  :     streamsize _Pad          = _Ostr.width() <= 0 || _Ostr.width() <= _Count ? 0 : _Ostr.width() - _Count;

  00045	48 85 ff	 test	 rdi, rdi
  00048	7e 0a		 jle	 SHORT $LN17@operator
  0004a	49 3b fe	 cmp	 rdi, r14
  0004d	7e 05		 jle	 SHORT $LN17@operator
  0004f	49 2b fe	 sub	 rdi, r14
  00052	eb 02		 jmp	 SHORT $LN18@operator
$LN17@operator:
  00054	33 ff		 xor	 edi, edi
$LN18@operator:

; 71   :         __CLR_OR_THIS_CALL _Sentry_base(basic_ostream& _Ostr) : _Myostr(_Ostr) { // lock the stream buffer, if there

  00056	4c 8b e6	 mov	 r12, rsi
  00059	48 89 74 24 20	 mov	 QWORD PTR _Ok$[rsp], rsi
; File C:\Program Files (x86)\Microsoft Visual Studio\2019\Community\VC\Tools\MSVC\14.29.30133\include\ios

; 80   :         return _Mystrbuf;

  0005e	4c 8b 44 30 48	 mov	 r8, QWORD PTR [rax+rsi+72]
  00063	48 8b d1	 mov	 rdx, rcx
; File C:\Program Files (x86)\Microsoft Visual Studio\2019\Community\VC\Tools\MSVC\14.29.30133\include\ostream

; 73   :             if (_Rdbuf) {

  00066	4d 85 c0	 test	 r8, r8
  00069	74 0f		 je	 SHORT $LN39@operator

; 74   :                 _Rdbuf->_Lock();

  0006b	49 8b 00	 mov	 rax, QWORD PTR [r8]
  0006e	49 8b c8	 mov	 rcx, r8
  00071	ff 50 08	 call	 QWORD PTR [rax+8]
  00074	48 8b 0e	 mov	 rcx, QWORD PTR [rsi]
  00077	48 8b d1	 mov	 rdx, rcx
$LN39@operator:

; 93   :             if (!_Ostr.good()) {

  0007a	48 63 41 04	 movsxd	 rax, DWORD PTR [rcx+4]
; File C:\Program Files (x86)\Microsoft Visual Studio\2019\Community\VC\Tools\MSVC\14.29.30133\include\xiosbase

; 295  :         return rdstate() == ios_base::goodbit;

  0007e	83 7c 30 10 00	 cmp	 DWORD PTR [rax+rsi+16], 0
; File C:\Program Files (x86)\Microsoft Visual Studio\2019\Community\VC\Tools\MSVC\14.29.30133\include\ostream

; 93   :             if (!_Ostr.good()) {

  00083	74 04		 je	 SHORT $LN33@operator

; 94   :                 _Ok = false;

  00085	32 c0		 xor	 al, al

; 95   :                 return;

  00087	eb 2e		 jmp	 SHORT $LN95@operator
$LN33@operator:
; File C:\Program Files (x86)\Microsoft Visual Studio\2019\Community\VC\Tools\MSVC\14.29.30133\include\ios

; 70   :         return _Tiestr;

  00089	48 8b 44 30 50	 mov	 rax, QWORD PTR [rax+rsi+80]
; File C:\Program Files (x86)\Microsoft Visual Studio\2019\Community\VC\Tools\MSVC\14.29.30133\include\ostream

; 99   :             if (!_Tied || _Tied == &_Ostr) {

  0008e	48 85 c0	 test	 rax, rax
  00091	74 22		 je	 SHORT $LN35@operator
  00093	48 3b c6	 cmp	 rax, rsi
  00096	74 1d		 je	 SHORT $LN35@operator

; 101  :                 return;
; 102  :             }
; 103  : 
; 104  :             _Tied->flush();

  00098	48 8b c8	 mov	 rcx, rax
  0009b	ff 15 00 00 00
	00		 call	 QWORD PTR __imp_?flush@?$basic_ostream@DU?$char_traits@D@std@@@std@@QEAAAEAV12@XZ

; 105  :             _Ok = _Ostr.good(); // store test only after flushing tie

  000a1	48 8b 0e	 mov	 rcx, QWORD PTR [rsi]
  000a4	48 63 41 04	 movsxd	 rax, DWORD PTR [rcx+4]
; File C:\Program Files (x86)\Microsoft Visual Studio\2019\Community\VC\Tools\MSVC\14.29.30133\include\xiosbase

; 295  :         return rdstate() == ios_base::goodbit;

  000a8	83 7c 30 10 00	 cmp	 DWORD PTR [rax+rsi+16], 0
  000ad	0f 94 c0	 sete	 al
; File C:\Program Files (x86)\Microsoft Visual Studio\2019\Community\VC\Tools\MSVC\14.29.30133\include\ostream

; 105  :             _Ok = _Ostr.good(); // store test only after flushing tie

  000b0	48 8b d1	 mov	 rdx, rcx
  000b3	eb 02		 jmp	 SHORT $LN95@operator
$LN35@operator:

; 100  :                 _Ok = true;

  000b5	b0 01		 mov	 al, 1
$LN95@operator:

; 106  :         }

  000b7	88 44 24 28	 mov	 BYTE PTR _Ok$[rsp+8], al

; 741  :     const typename _Myos::sentry _Ok(_Ostr);
; 742  : 
; 743  :     if (!_Ok) {

  000bb	84 c0		 test	 al, al
  000bd	75 0a		 jne	 SHORT $LN8@operator

; 744  :         _State |= ios_base::badbit;

  000bf	bb 04 00 00 00	 mov	 ebx, 4

; 745  :     } else { // state okay, insert

  000c4	e9 a9 00 00 00	 jmp	 $LN22@operator
$LN8@operator:

; 747  :         if ((_Ostr.flags() & ios_base::adjustfield) != ios_base::left) {

  000c9	48 63 41 04	 movsxd	 rax, DWORD PTR [rcx+4]
; File C:\Program Files (x86)\Microsoft Visual Studio\2019\Community\VC\Tools\MSVC\14.29.30133\include\xiosbase

; 326  :         return _Fmtfl;

  000cd	8b 4c 30 18	 mov	 ecx, DWORD PTR [rax+rsi+24]
; File C:\Program Files (x86)\Microsoft Visual Studio\2019\Community\VC\Tools\MSVC\14.29.30133\include\ostream

; 747  :         if ((_Ostr.flags() & ios_base::adjustfield) != ios_base::left) {

  000d1	81 e1 c0 01 00
	00		 and	 ecx, 448		; 000001c0H
  000d7	83 f9 40	 cmp	 ecx, 64			; 00000040H
  000da	74 2d		 je	 SHORT $LN87@operator
  000dc	0f 1f 40 00	 npad	 4
$LL4@operator:

; 748  :             for (; 0 < _Pad; --_Pad) { // pad on left

  000e0	48 85 ff	 test	 rdi, rdi
  000e3	7e 21		 jle	 SHORT $LN89@operator

; 749  :                 if (_Traits::eq_int_type(_Traits::eof(), _Ostr.rdbuf()->sputc(_Ostr.fill()))) {

  000e5	48 8b 06	 mov	 rax, QWORD PTR [rsi]
  000e8	48 63 48 04	 movsxd	 rcx, DWORD PTR [rax+4]
  000ec	0f b6 54 31 58	 movzx	 edx, BYTE PTR [rcx+rsi+88]
  000f1	48 8b 4c 31 48	 mov	 rcx, QWORD PTR [rcx+rsi+72]
  000f6	ff 15 00 00 00
	00		 call	 QWORD PTR __imp_?sputc@?$basic_streambuf@DU?$char_traits@D@std@@@std@@QEAAHD@Z
  000fc	83 f8 ff	 cmp	 eax, -1
  000ff	74 48		 je	 SHORT $LN96@operator

; 748  :             for (; 0 < _Pad; --_Pad) { // pad on left

  00101	48 ff cf	 dec	 rdi
  00104	eb da		 jmp	 SHORT $LL4@operator
$LN89@operator:

; 750  :                     _State |= ios_base::badbit; // insertion failed, quit
; 751  :                     break;
; 752  :                 }
; 753  :             }
; 754  :         }
; 755  : 
; 756  :         if (_State == ios_base::goodbit && _Ostr.rdbuf()->sputn(_Val, _Count) != _Count) {

  00106	48 8b 16	 mov	 rdx, QWORD PTR [rsi]
$LN87@operator:
  00109	48 63 42 04	 movsxd	 rax, DWORD PTR [rdx+4]
  0010d	4d 8b c6	 mov	 r8, r14
  00110	49 8b d7	 mov	 rdx, r15
  00113	48 8b 4c 30 48	 mov	 rcx, QWORD PTR [rax+rsi+72]
  00118	ff 15 00 00 00
	00		 call	 QWORD PTR __imp_?sputn@?$basic_streambuf@DU?$char_traits@D@std@@@std@@QEAA_JPEBD_J@Z
  0011e	49 3b c6	 cmp	 rax, r14
  00121	75 26		 jne	 SHORT $LN96@operator
$LL93@operator:

; 757  :             _State |= ios_base::badbit;
; 758  :         }
; 759  : 
; 760  :         if (_State == ios_base::goodbit) {
; 761  :             for (; 0 < _Pad; --_Pad) { // pad on right

  00123	48 85 ff	 test	 rdi, rdi
  00126	7e 2a		 jle	 SHORT $LN6@operator

; 762  :                 if (_Traits::eq_int_type(_Traits::eof(), _Ostr.rdbuf()->sputc(_Ostr.fill()))) {

  00128	48 8b 06	 mov	 rax, QWORD PTR [rsi]
  0012b	48 63 48 04	 movsxd	 rcx, DWORD PTR [rax+4]
  0012f	0f b6 54 31 58	 movzx	 edx, BYTE PTR [rcx+rsi+88]
  00134	48 8b 4c 31 48	 mov	 rcx, QWORD PTR [rcx+rsi+72]
  00139	ff 15 00 00 00
	00		 call	 QWORD PTR __imp_?sputc@?$basic_streambuf@DU?$char_traits@D@std@@@std@@QEAAHD@Z
  0013f	83 f8 ff	 cmp	 eax, -1
  00142	74 05		 je	 SHORT $LN96@operator

; 757  :             _State |= ios_base::badbit;
; 758  :         }
; 759  : 
; 760  :         if (_State == ios_base::goodbit) {
; 761  :             for (; 0 < _Pad; --_Pad) { // pad on right

  00144	48 ff cf	 dec	 rdi
  00147	eb da		 jmp	 SHORT $LL93@operator
$LN96@operator:

; 763  :                     _State |= ios_base::badbit; // insertion failed, quit
; 764  :                     break;
; 765  :                 }
; 766  :             }
; 767  :         }
; 768  : 
; 769  :         _Ostr.width(0);

  00149	bb 04 00 00 00	 mov	 ebx, 4
  0014e	89 5c 24 70	 mov	 DWORD PTR _State$[rsp], ebx
$LN6@operator:
  00152	48 8b 06	 mov	 rax, QWORD PTR [rsi]
  00155	48 63 48 04	 movsxd	 rcx, DWORD PTR [rax+4]
; File C:\Program Files (x86)\Microsoft Visual Studio\2019\Community\VC\Tools\MSVC\14.29.30133\include\xiosbase

; 368  :         _Wide                      = _Newwidth;

  00159	48 c7 44 31 28
	00 00 00 00	 mov	 QWORD PTR [rcx+rsi+40], 0
; File C:\Program Files (x86)\Microsoft Visual Studio\2019\Community\VC\Tools\MSVC\14.29.30133\include\ostream
  00162	eb 0e		 jmp	 SHORT $LN22@operator
$LN23@operator:
; File C:\Program Files (x86)\Microsoft Visual Studio\2019\Community\VC\Tools\MSVC\14.29.30133\include\ios
  00164	48 8b 74 24 60	 mov	 rsi, QWORD PTR _Ostr$[rsp]
  00169	8b 5c 24 70	 mov	 ebx, DWORD PTR _State$[rsp]
  0016d	4c 8b 64 24 20	 mov	 r12, QWORD PTR _Ok$[rsp]
$LN22@operator:
; File C:\Program Files (x86)\Microsoft Visual Studio\2019\Community\VC\Tools\MSVC\14.29.30133\include\ostream

; 773  :     _Ostr.setstate(_State);

  00172	48 8b 06	 mov	 rax, QWORD PTR [rsi]
  00175	48 63 48 04	 movsxd	 rcx, DWORD PTR [rax+4]
  00179	48 03 ce	 add	 rcx, rsi
  0017c	45 33 c0	 xor	 r8d, r8d
  0017f	8b d3		 mov	 edx, ebx
  00181	ff 15 00 00 00
	00		 call	 QWORD PTR __imp_?setstate@?$basic_ios@DU?$char_traits@D@std@@@std@@QEAAXH_N@Z
  00187	90		 npad	 1

; 113  :             const bool _Zero_uncaught_exceptions = !_STD uncaught_exception(); // TRANSITION, ArchivedOS-12000909

  00188	e8 00 00 00 00	 call	 ?uncaught_exception@std@@YA_NXZ ; std::uncaught_exception

; 114  : #else // ^^^ _HAS_DEPRECATED_UNCAUGHT_EXCEPTION / !_HAS_DEPRECATED_UNCAUGHT_EXCEPTION vvv
; 115  :             const bool _Zero_uncaught_exceptions = _STD uncaught_exceptions() == 0;
; 116  : #endif // !_HAS_DEPRECATED_UNCAUGHT_EXCEPTION
; 117  : 
; 118  :             if (_Zero_uncaught_exceptions) {

  0018d	84 c0		 test	 al, al
  0018f	75 0a		 jne	 SHORT $LN72@operator

; 119  :                 this->_Myostr._Osfx();

  00191	49 8b cc	 mov	 rcx, r12
  00194	ff 15 00 00 00
	00		 call	 QWORD PTR __imp_?_Osfx@?$basic_ostream@DU?$char_traits@D@std@@@std@@QEAAXXZ
  0019a	90		 npad	 1
$LN72@operator:

; 79   :             const auto _Rdbuf = _Myostr.rdbuf();

  0019b	49 8b 04 24	 mov	 rax, QWORD PTR [r12]
  0019f	48 63 48 04	 movsxd	 rcx, DWORD PTR [rax+4]
; File C:\Program Files (x86)\Microsoft Visual Studio\2019\Community\VC\Tools\MSVC\14.29.30133\include\ios

; 80   :         return _Mystrbuf;

  001a3	4a 8b 4c 21 48	 mov	 rcx, QWORD PTR [rcx+r12+72]
; File C:\Program Files (x86)\Microsoft Visual Studio\2019\Community\VC\Tools\MSVC\14.29.30133\include\ostream

; 80   :             if (_Rdbuf) {

  001a8	48 85 c9	 test	 rcx, rcx
  001ab	74 07		 je	 SHORT $LN76@operator

; 81   :                 _Rdbuf->_Unlock();

  001ad	48 8b 01	 mov	 rax, QWORD PTR [rcx]
  001b0	ff 50 10	 call	 QWORD PTR [rax+16]
  001b3	90		 npad	 1
$LN76@operator:

; 774  :     return _Ostr;

  001b4	48 8b c6	 mov	 rax, rsi

; 775  : }

  001b7	48 8b 5c 24 68	 mov	 rbx, QWORD PTR [rsp+104]
  001bc	48 83 c4 30	 add	 rsp, 48			; 00000030H
  001c0	41 5f		 pop	 r15
  001c2	41 5e		 pop	 r14
  001c4	41 5c		 pop	 r12
  001c6	5f		 pop	 rdi
  001c7	5e		 pop	 rsi
  001c8	c3		 ret	 0
??$?6U?$char_traits@D@std@@@std@@YAAEAV?$basic_ostream@DU?$char_traits@D@std@@@0@AEAV10@PEBD@Z ENDP ; std::operator<<<std::char_traits<char> >
_TEXT	ENDS
;	COMDAT text$x
text$x	SEGMENT
_Ok$ = 32
_Ostr$ = 96
_Val$ = 104
_State$ = 112
?dtor$1@?0???$?6U?$char_traits@D@std@@@std@@YAAEAV?$basic_ostream@DU?$char_traits@D@std@@@0@AEAV10@PEBD@Z@4HA PROC ; `std::operator<<<std::char_traits<char> >'::`1'::dtor$1
  00000	48 8d 8a 20 00
	00 00		 lea	 rcx, QWORD PTR _Ok$[rdx]
  00007	e9 00 00 00 00	 jmp	 ??1_Sentry_base@?$basic_ostream@DU?$char_traits@D@std@@@std@@QEAA@XZ ; std::basic_ostream<char,std::char_traits<char> >::_Sentry_base::~_Sentry_base
?dtor$1@?0???$?6U?$char_traits@D@std@@@std@@YAAEAV?$basic_ostream@DU?$char_traits@D@std@@@0@AEAV10@PEBD@Z@4HA ENDP ; `std::operator<<<std::char_traits<char> >'::`1'::dtor$1
text$x	ENDS
;	COMDAT text$x
text$x	SEGMENT
_Ok$ = 32
_Ostr$ = 96
_Val$ = 104
_State$ = 112
?dtor$0@?0???$?6U?$char_traits@D@std@@@std@@YAAEAV?$basic_ostream@DU?$char_traits@D@std@@@0@AEAV10@PEBD@Z@4HA PROC ; `std::operator<<<std::char_traits<char> >'::`1'::dtor$0
  00000	48 8d 8a 20 00
	00 00		 lea	 rcx, QWORD PTR _Ok$[rdx]
  00007	e9 00 00 00 00	 jmp	 ??1sentry@?$basic_ostream@DU?$char_traits@D@std@@@std@@QEAA@XZ ; std::basic_ostream<char,std::char_traits<char> >::sentry::~sentry
?dtor$0@?0???$?6U?$char_traits@D@std@@@std@@YAAEAV?$basic_ostream@DU?$char_traits@D@std@@@0@AEAV10@PEBD@Z@4HA ENDP ; `std::operator<<<std::char_traits<char> >'::`1'::dtor$0
text$x	ENDS
;	COMDAT text$x
text$x	SEGMENT
_Ok$ = 32
_Ostr$ = 96
_Val$ = 104
_State$ = 112
?catch$4@?0???$?6U?$char_traits@D@std@@@std@@YAAEAV?$basic_ostream@DU?$char_traits@D@std@@@0@AEAV10@PEBD@Z@4HA PROC ; `std::operator<<<std::char_traits<char> >'::`1'::catch$4

; 770  :         _CATCH_IO_(ios_base, _Ostr)

  00000	48 89 54 24 10	 mov	 QWORD PTR [rsp+16], rdx
  00005	55		 push	 rbp
  00006	48 83 ec 20	 sub	 rsp, 32			; 00000020H
  0000a	48 8b ea	 mov	 rbp, rdx
__catch$??$?6U?$char_traits@D@std@@@std@@YAAEAV?$basic_ostream@DU?$char_traits@D@std@@@0@AEAV10@PEBD@Z$0:
  0000d	48 8b 55 60	 mov	 rdx, QWORD PTR _Ostr$[rbp]
  00011	48 8b 02	 mov	 rax, QWORD PTR [rdx]
  00014	48 63 48 04	 movsxd	 rcx, DWORD PTR [rax+4]
  00018	48 03 ca	 add	 rcx, rdx
  0001b	41 b0 01	 mov	 r8b, 1
  0001e	ba 04 00 00 00	 mov	 edx, 4
  00023	ff 15 00 00 00
	00		 call	 QWORD PTR __imp_?setstate@?$basic_ios@DU?$char_traits@D@std@@@std@@QEAAXH_N@Z
  00029	90		 npad	 1
  0002a	48 b8 00 00 00
	00 00 00 00 00	 mov	 rax, 0
  00034	48 83 c4 20	 add	 rsp, 32			; 00000020H
  00038	5d		 pop	 rbp
  00039	c3		 ret	 0
  0003a	cc		 int	 3
?catch$4@?0???$?6U?$char_traits@D@std@@@std@@YAAEAV?$basic_ostream@DU?$char_traits@D@std@@@0@AEAV10@PEBD@Z@4HA ENDP ; `std::operator<<<std::char_traits<char> >'::`1'::catch$4
text$x	ENDS
; Function compile flags: /Ogtpy
;	COMDAT text$x
text$x	SEGMENT
_Ok$ = 32
_Ostr$ = 96
_Val$ = 104
_State$ = 112
?dtor$1@?0???$?6U?$char_traits@D@std@@@std@@YAAEAV?$basic_ostream@DU?$char_traits@D@std@@@0@AEAV10@PEBD@Z@4HA PROC ; `std::operator<<<std::char_traits<char> >'::`1'::dtor$1
  00000	48 8d 8a 20 00
	00 00		 lea	 rcx, QWORD PTR _Ok$[rdx]
  00007	e9 00 00 00 00	 jmp	 ??1_Sentry_base@?$basic_ostream@DU?$char_traits@D@std@@@std@@QEAA@XZ ; std::basic_ostream<char,std::char_traits<char> >::_Sentry_base::~_Sentry_base
?dtor$1@?0???$?6U?$char_traits@D@std@@@std@@YAAEAV?$basic_ostream@DU?$char_traits@D@std@@@0@AEAV10@PEBD@Z@4HA ENDP ; `std::operator<<<std::char_traits<char> >'::`1'::dtor$1
text$x	ENDS
; Function compile flags: /Ogtpy
;	COMDAT text$x
text$x	SEGMENT
_Ok$ = 32
_Ostr$ = 96
_Val$ = 104
_State$ = 112
?dtor$0@?0???$?6U?$char_traits@D@std@@@std@@YAAEAV?$basic_ostream@DU?$char_traits@D@std@@@0@AEAV10@PEBD@Z@4HA PROC ; `std::operator<<<std::char_traits<char> >'::`1'::dtor$0
  00000	48 8d 8a 20 00
	00 00		 lea	 rcx, QWORD PTR _Ok$[rdx]
  00007	e9 00 00 00 00	 jmp	 ??1sentry@?$basic_ostream@DU?$char_traits@D@std@@@std@@QEAA@XZ ; std::basic_ostream<char,std::char_traits<char> >::sentry::~sentry
?dtor$0@?0???$?6U?$char_traits@D@std@@@std@@YAAEAV?$basic_ostream@DU?$char_traits@D@std@@@0@AEAV10@PEBD@Z@4HA ENDP ; `std::operator<<<std::char_traits<char> >'::`1'::dtor$0
text$x	ENDS
; Function compile flags: /Ogtpy
;	COMDAT text$x
text$x	SEGMENT
_Ok$ = 32
_Ostr$ = 96
_Val$ = 104
_State$ = 112
?catch$4@?0???$?6U?$char_traits@D@std@@@std@@YAAEAV?$basic_ostream@DU?$char_traits@D@std@@@0@AEAV10@PEBD@Z@4HA PROC ; `std::operator<<<std::char_traits<char> >'::`1'::catch$4

; 770  :         _CATCH_IO_(ios_base, _Ostr)

  00000	48 89 54 24 10	 mov	 QWORD PTR [rsp+16], rdx
  00005	55		 push	 rbp
  00006	48 83 ec 20	 sub	 rsp, 32			; 00000020H
  0000a	48 8b ea	 mov	 rbp, rdx
__catch$??$?6U?$char_traits@D@std@@@std@@YAAEAV?$basic_ostream@DU?$char_traits@D@std@@@0@AEAV10@PEBD@Z$0:
  0000d	48 8b 55 60	 mov	 rdx, QWORD PTR _Ostr$[rbp]
  00011	48 8b 02	 mov	 rax, QWORD PTR [rdx]
  00014	48 63 48 04	 movsxd	 rcx, DWORD PTR [rax+4]
  00018	48 03 ca	 add	 rcx, rdx
  0001b	41 b0 01	 mov	 r8b, 1
  0001e	ba 04 00 00 00	 mov	 edx, 4
  00023	ff 15 00 00 00
	00		 call	 QWORD PTR __imp_?setstate@?$basic_ios@DU?$char_traits@D@std@@@std@@QEAAXH_N@Z
  00029	90		 npad	 1
  0002a	48 b8 00 00 00
	00 00 00 00 00	 mov	 rax, 0
  00034	48 83 c4 20	 add	 rsp, 32			; 00000020H
  00038	5d		 pop	 rbp
  00039	c3		 ret	 0
  0003a	cc		 int	 3
?catch$4@?0???$?6U?$char_traits@D@std@@@std@@YAAEAV?$basic_ostream@DU?$char_traits@D@std@@@0@AEAV10@PEBD@Z@4HA ENDP ; `std::operator<<<std::char_traits<char> >'::`1'::catch$4
text$x	ENDS
; Function compile flags: /Ogtpy
; File E:\Visual_Studio_Community\Files\testsolution01\Ch01\Ch01.cpp
; File C:\Program Files (x86)\Microsoft Visual Studio\2019\Community\VC\Tools\MSVC\14.29.30133\include\chrono
; File E:\Visual_Studio_Community\Files\testsolution01\Ch01\Ch01.cpp
; File C:\Program Files (x86)\Microsoft Visual Studio\2019\Community\VC\Tools\MSVC\14.29.30133\include\chrono
; File E:\Visual_Studio_Community\Files\testsolution01\Ch01\Ch01.cpp
; File C:\Program Files (x86)\Microsoft Visual Studio\2019\Community\VC\Tools\MSVC\14.29.30133\include\chrono
; File E:\Visual_Studio_Community\Files\testsolution01\Ch01\Ch01.cpp
; File C:\Program Files (x86)\Microsoft Visual Studio\2019\Community\VC\Tools\MSVC\14.29.30133\include\chrono
; File E:\Visual_Studio_Community\Files\testsolution01\Ch01\Ch01.cpp
; File C:\Program Files (x86)\Microsoft Visual Studio\2019\Community\VC\Tools\MSVC\14.29.30133\include\iomanip
; File E:\Visual_Studio_Community\Files\testsolution01\Ch01\Ch01.cpp
; File C:\Program Files (x86)\Microsoft Visual Studio\2019\Community\VC\Tools\MSVC\14.29.30133\include\iomanip
; File E:\Visual_Studio_Community\Files\testsolution01\Ch01\Ch01.cpp
; File C:\Program Files (x86)\Microsoft Visual Studio\2019\Community\VC\Tools\MSVC\14.29.30133\include\chrono
; File E:\Visual_Studio_Community\Files\testsolution01\Ch01\Ch01.cpp
; File C:\Program Files (x86)\Microsoft Visual Studio\2019\Community\VC\Tools\MSVC\14.29.30133\include\chrono
; File E:\Visual_Studio_Community\Files\testsolution01\Ch01\Ch01.cpp
; File C:\Program Files (x86)\Microsoft Visual Studio\2019\Community\VC\Tools\MSVC\14.29.30133\include\chrono
; File E:\Visual_Studio_Community\Files\testsolution01\Ch01\Ch01.cpp
; File C:\Program Files (x86)\Microsoft Visual Studio\2019\Community\VC\Tools\MSVC\14.29.30133\include\chrono
; File E:\Visual_Studio_Community\Files\testsolution01\Ch01\Ch01.cpp
; File C:\Program Files (x86)\Microsoft Visual Studio\2019\Community\VC\Tools\MSVC\14.29.30133\include\chrono
; File E:\Visual_Studio_Community\Files\testsolution01\Ch01\Ch01.cpp
; File C:\Program Files (x86)\Microsoft Visual Studio\2019\Community\VC\Tools\MSVC\14.29.30133\include\chrono
; File E:\Visual_Studio_Community\Files\testsolution01\Ch01\Ch01.cpp
; File C:\Program Files (x86)\Microsoft Visual Studio\2019\Community\VC\Tools\MSVC\14.29.30133\include\chrono
; File E:\Visual_Studio_Community\Files\testsolution01\Ch01\Ch01.cpp
; File C:\Program Files (x86)\Microsoft Visual Studio\2019\Community\VC\Tools\MSVC\14.29.30133\include\chrono
; File E:\Visual_Studio_Community\Files\testsolution01\Ch01\Ch01.cpp
; File C:\Program Files (x86)\Microsoft Visual Studio\2019\Community\VC\Tools\MSVC\14.29.30133\include\iomanip
; File E:\Visual_Studio_Community\Files\testsolution01\Ch01\Ch01.cpp
; File C:\Program Files (x86)\Microsoft Visual Studio\2019\Community\VC\Tools\MSVC\14.29.30133\include\iomanip
; File E:\Visual_Studio_Community\Files\testsolution01\Ch01\Ch01.cpp
; File C:\Program Files (x86)\Microsoft Visual Studio\2019\Community\VC\Tools\MSVC\14.29.30133\include\chrono
; File E:\Visual_Studio_Community\Files\testsolution01\Ch01\Ch01.cpp
; File C:\Program Files (x86)\Microsoft Visual Studio\2019\Community\VC\Tools\MSVC\14.29.30133\include\chrono
; File E:\Visual_Studio_Community\Files\testsolution01\Ch01\Ch01.cpp
; File C:\Program Files (x86)\Microsoft Visual Studio\2019\Community\VC\Tools\MSVC\14.29.30133\include\chrono
; File E:\Visual_Studio_Community\Files\testsolution01\Ch01\Ch01.cpp
; File C:\Program Files (x86)\Microsoft Visual Studio\2019\Community\VC\Tools\MSVC\14.29.30133\include\chrono
; File E:\Visual_Studio_Community\Files\testsolution01\Ch01\Ch01.cpp
; File C:\Program Files (x86)\Microsoft Visual Studio\2019\Community\VC\Tools\MSVC\14.29.30133\include\chrono
; File E:\Visual_Studio_Community\Files\testsolution01\Ch01\Ch01.cpp
; File C:\Program Files (x86)\Microsoft Visual Studio\2019\Community\VC\Tools\MSVC\14.29.30133\include\chrono
; File E:\Visual_Studio_Community\Files\testsolution01\Ch01\Ch01.cpp
; File C:\Program Files (x86)\Microsoft Visual Studio\2019\Community\VC\Tools\MSVC\14.29.30133\include\chrono
; File E:\Visual_Studio_Community\Files\testsolution01\Ch01\Ch01.cpp
; File C:\Program Files (x86)\Microsoft Visual Studio\2019\Community\VC\Tools\MSVC\14.29.30133\include\chrono
; File E:\Visual_Studio_Community\Files\testsolution01\Ch01\Ch01.cpp
; File C:\Program Files (x86)\Microsoft Visual Studio\2019\Community\VC\Tools\MSVC\14.29.30133\include\iomanip
; File E:\Visual_Studio_Community\Files\testsolution01\Ch01\Ch01.cpp
; File C:\Program Files (x86)\Microsoft Visual Studio\2019\Community\VC\Tools\MSVC\14.29.30133\include\iomanip
; File E:\Visual_Studio_Community\Files\testsolution01\Ch01\Ch01.cpp
;	COMDAT main
_TEXT	SEGMENT
$T1 = 32
$T2 = 32
$T3 = 32
main	PROC						; COMDAT

; 35   : {

$LN140:
  00000	48 89 5c 24 08	 mov	 QWORD PTR [rsp+8], rbx
  00005	48 89 6c 24 10	 mov	 QWORD PTR [rsp+16], rbp
  0000a	48 89 74 24 18	 mov	 QWORD PTR [rsp+24], rsi
  0000f	57		 push	 rdi
  00010	41 56		 push	 r14
  00012	41 57		 push	 r15
  00014	48 83 ec 30	 sub	 rsp, 48			; 00000030H

; 36   :     //std::cout << "Hello World!\n";
; 37   :     float* x = new float[100];

  00018	b9 90 01 00 00	 mov	 ecx, 400		; 00000190H
  0001d	e8 00 00 00 00	 call	 ??_U@YAPEAX_K@Z		; operator new[]

; 38   :     float* y = new float[100];

  00022	b9 90 01 00 00	 mov	 ecx, 400		; 00000190H
  00027	48 8b e8	 mov	 rbp, rax
  0002a	e8 00 00 00 00	 call	 ??_U@YAPEAX_K@Z		; operator new[]

; 39   :     float* z = new float[100];

  0002f	b9 90 01 00 00	 mov	 ecx, 400		; 00000190H
  00034	4c 8b f0	 mov	 r14, rax
  00037	e8 00 00 00 00	 call	 ??_U@YAPEAX_K@Z		; operator new[]
  0003c	48 8d 8d 8c 01
	00 00		 lea	 rcx, QWORD PTR [rbp+396]
  00043	4c 8b f8	 mov	 r15, rax
  00046	49 8d 96 8c 01
	00 00		 lea	 rdx, QWORD PTR [r14+396]
  0004d	4c 3b f1	 cmp	 r14, rcx
  00050	77 08		 ja	 SHORT $LN130@main

; 36   :     //std::cout << "Hello World!\n";
; 37   :     float* x = new float[100];

  00052	45 33 c0	 xor	 r8d, r8d
  00055	48 3b d5	 cmp	 rdx, rbp
  00058	73 6e		 jae	 SHORT $LN135@main
$LN130@main:

; 40   :     for (int i = 0; i < 100; i++) {
; 41   :         x[i] = 1;

  0005a	62 f1 7c 48 28
	05 00 00 00 00	 vmovaps zmm0, ZMMWORD PTR __zmm@3f8000003f8000003f8000003f8000003f8000003f8000003f8000003f8000003f8000003f8000003f8000003f8000003f8000003f8000003f8000003f800000
  00064	b9 03 00 00 00	 mov	 ecx, 3
  00069	48 8b c5	 mov	 rax, rbp
  0006c	8b d1		 mov	 edx, ecx
  0006e	66 90		 npad	 2
$LL137@main:
  00070	62 f1 7c 48 11
	00		 vmovups ZMMWORD PTR [rax], zmm0
  00076	c5 fc 11 40 40	 vmovups YMMWORD PTR [rax+64], ymm0
  0007b	c5 f8 11 40 60	 vmovups XMMWORD PTR [rax+96], xmm0
  00080	48 8d 80 80 00
	00 00		 lea	 rax, QWORD PTR [rax+128]
  00087	c5 f8 11 40 f0	 vmovups XMMWORD PTR [rax-16], xmm0
  0008c	48 83 ea 01	 sub	 rdx, 1
  00090	75 de		 jne	 SHORT $LL137@main

; 36   :     //std::cout << "Hello World!\n";
; 37   :     float* x = new float[100];

  00092	62 f1 7c 48 28
	05 00 00 00 00	 vmovaps zmm0, ZMMWORD PTR __zmm@40000000400000004000000040000000400000004000000040000000400000004000000040000000400000004000000040000000400000004000000040000000
  0009c	49 8b c6	 mov	 rax, r14
  0009f	90		 npad	 1
$LL136@main:
  000a0	62 f1 7c 48 11
	00		 vmovups ZMMWORD PTR [rax], zmm0
  000a6	c5 fc 11 40 40	 vmovups YMMWORD PTR [rax+64], ymm0
  000ab	c5 f8 11 40 60	 vmovups XMMWORD PTR [rax+96], xmm0
  000b0	48 8d 80 80 00
	00 00		 lea	 rax, QWORD PTR [rax+128]
  000b7	c5 f8 11 40 f0	 vmovups XMMWORD PTR [rax-16], xmm0
  000bc	48 83 e9 01	 sub	 rcx, 1
  000c0	75 de		 jne	 SHORT $LL136@main
  000c2	41 b8 60 00 00
	00		 mov	 r8d, 96			; 00000060H
$LN135@main:
  000c8	48 8b d5	 mov	 rdx, rbp
  000cb	4b 8d 04 86	 lea	 rax, QWORD PTR [r14+r8*4]
  000cf	49 2b d6	 sub	 rdx, r14
  000d2	b9 64 00 00 00	 mov	 ecx, 100		; 00000064H
  000d7	49 2b c8	 sub	 rcx, r8
  000da	66 0f 1f 44 00
	00		 npad	 6
$LL128@main:

; 40   :     for (int i = 0; i < 100; i++) {
; 41   :         x[i] = 1;

  000e0	c7 04 02 00 00
	80 3f		 mov	 DWORD PTR [rdx+rax], 1065353216 ; 3f800000H

; 42   :         y[i] = 2;

  000e7	c7 00 00 00 00
	40		 mov	 DWORD PTR [rax], 1073741824 ; 40000000H
  000ed	48 8d 40 04	 lea	 rax, QWORD PTR [rax+4]
  000f1	48 83 e9 01	 sub	 rcx, 1
  000f5	75 e9		 jne	 SHORT $LL128@main
; File C:\Program Files (x86)\Microsoft Visual Studio\2019\Community\VC\Tools\MSVC\14.29.30133\include\chrono

; 705  :             const long long _Freq = _Query_perf_frequency(); // doesn't change after system boot

  000f7	c5 f8 77	 vzeroupper
  000fa	e8 00 00 00 00	 call	 _Query_perf_frequency
  000ff	48 8b f0	 mov	 rsi, rax

; 706  :             const long long _Ctr  = _Query_perf_counter();

  00102	e8 00 00 00 00	 call	 _Query_perf_counter
; File E:\Visual_Studio_Community\Files\testsolution01\Ch01\Ch01.cpp

; 47   :     CalcZ_Iavx(z, x, y, size);

  00107	41 b9 08 00 00
	00		 mov	 r9d, 8
  0010d	4d 8b c6	 mov	 r8, r14
  00110	48 8b d5	 mov	 rdx, rbp
  00113	49 8b cf	 mov	 rcx, r15
; File C:\Program Files (x86)\Microsoft Visual Studio\2019\Community\VC\Tools\MSVC\14.29.30133\include\chrono

; 706  :             const long long _Ctr  = _Query_perf_counter();

  00116	48 8b d8	 mov	 rbx, rax
; File E:\Visual_Studio_Community\Files\testsolution01\Ch01\Ch01.cpp

; 47   :     CalcZ_Iavx(z, x, y, size);

  00119	e8 00 00 00 00	 call	 ?CalcZ_Iavx@@YAXPEAMPEBM1_K@Z ; CalcZ_Iavx
; File C:\Program Files (x86)\Microsoft Visual Studio\2019\Community\VC\Tools\MSVC\14.29.30133\include\chrono

; 705  :             const long long _Freq = _Query_perf_frequency(); // doesn't change after system boot

  0011e	e8 00 00 00 00	 call	 _Query_perf_frequency
  00123	48 8b f8	 mov	 rdi, rax

; 706  :             const long long _Ctr  = _Query_perf_counter();

  00126	e8 00 00 00 00	 call	 _Query_perf_counter
  0012b	48 8b c8	 mov	 rcx, rax

; 714  :             const long long _Part  = (_Ctr % _Freq) * period::den / _Freq;

  0012e	48 8b c3	 mov	 rax, rbx
  00131	48 99		 cdq
  00133	48 f7 fe	 idiv	 rsi
  00136	4c 8b d0	 mov	 r10, rax
  00139	4c 8b ca	 mov	 r9, rdx
  0013c	48 8b c1	 mov	 rax, rcx
  0013f	48 99		 cdq
  00141	48 f7 ff	 idiv	 rdi
  00144	48 8b c8	 mov	 rcx, rax
  00147	48 69 c2 00 ca
	9a 3b		 imul	 rax, rdx, 1000000000	; 3b9aca00H

; 238  :             return _MyDur;

  0014e	49 2b ca	 sub	 rcx, r10

; 714  :             const long long _Part  = (_Ctr % _Freq) * period::den / _Freq;

  00151	48 99		 cdq
  00153	48 f7 ff	 idiv	 rdi
  00156	4c 8b c0	 mov	 r8, rax
  00159	49 69 c1 00 ca
	9a 3b		 imul	 rax, r9, 1000000000	; 3b9aca00H
  00160	48 99		 cdq
  00162	48 f7 fe	 idiv	 rsi

; 238  :             return _MyDur;

  00165	48 69 f1 00 ca
	9a 3b		 imul	 rsi, rcx, 1000000000	; 3b9aca00H
  0016c	4c 2b c0	 sub	 r8, rax
; File E:\Visual_Studio_Community\Files\testsolution01\Ch01\Ch01.cpp

; 51   :     cout << "Time taken by Iavx program is : " << fixed << setprecision(9) << time_taken << " sec" << endl;

  0016f	48 8d 4c 24 20	 lea	 rcx, QWORD PTR $T3[rsp]
  00174	ba 09 00 00 00	 mov	 edx, 9
; File C:\Program Files (x86)\Microsoft Visual Studio\2019\Community\VC\Tools\MSVC\14.29.30133\include\chrono

; 238  :             return _MyDur;

  00179	49 03 f0	 add	 rsi, r8
; File E:\Visual_Studio_Community\Files\testsolution01\Ch01\Ch01.cpp

; 51   :     cout << "Time taken by Iavx program is : " << fixed << setprecision(9) << time_taken << " sec" << endl;

  0017c	e8 00 00 00 00	 call	 ?setprecision@std@@YA?AU?$_Smanip@_J@1@_J@Z ; std::setprecision
  00181	48 8b 0d 00 00
	00 00		 mov	 rcx, QWORD PTR __imp_?cout@std@@3V?$basic_ostream@DU?$char_traits@D@std@@@1@A
  00188	48 8d 15 00 00
	00 00		 lea	 rdx, OFFSET FLAT:??_C@_0CB@KPCJIIKF@Time?5taken?5by?5Iavx?5program?5is?5?3@
  0018f	48 8b f8	 mov	 rdi, rax
  00192	e8 00 00 00 00	 call	 ??$?6U?$char_traits@D@std@@@std@@YAAEAV?$basic_ostream@DU?$char_traits@D@std@@@0@AEAV10@PEBD@Z ; std::operator<<<std::char_traits<char> >
  00197	48 8b c8	 mov	 rcx, rax
  0019a	48 8d 15 00 00
	00 00		 lea	 rdx, OFFSET FLAT:?fixed@std@@YAAEAVios_base@1@AEAV21@@Z ; std::fixed
  001a1	ff 15 00 00 00
	00		 call	 QWORD PTR __imp_??6?$basic_ostream@DU?$char_traits@D@std@@@std@@QEAAAEAV01@P6AAEAVios_base@1@AEAV21@@Z@Z
; File C:\Program Files (x86)\Microsoft Visual Studio\2019\Community\VC\Tools\MSVC\14.29.30133\include\iomanip

; 424  :     (*_Manip._Pfun)(_Ostr, _Manip._Manarg);

  001a7	48 8b 57 08	 mov	 rdx, QWORD PTR [rdi+8]
; File E:\Visual_Studio_Community\Files\testsolution01\Ch01\Ch01.cpp

; 51   :     cout << "Time taken by Iavx program is : " << fixed << setprecision(9) << time_taken << " sec" << endl;

  001ab	48 8b d8	 mov	 rbx, rax
; File C:\Program Files (x86)\Microsoft Visual Studio\2019\Community\VC\Tools\MSVC\14.29.30133\include\iomanip

; 424  :     (*_Manip._Pfun)(_Ostr, _Manip._Manarg);

  001ae	48 8b 08	 mov	 rcx, QWORD PTR [rax]
  001b1	48 63 49 04	 movsxd	 rcx, DWORD PTR [rcx+4]
  001b5	48 03 c8	 add	 rcx, rax
  001b8	ff 17		 call	 QWORD PTR [rdi]
  001ba	c5 f8 57 c0	 vxorps	 xmm0, xmm0, xmm0
; File E:\Visual_Studio_Community\Files\testsolution01\Ch01\Ch01.cpp

; 49   :     double time_taken = chrono::duration_cast<chrono::nanoseconds>(end - start).count();

  001be	c4 e1 fb 2a c6	 vcvtsi2sd xmm0, xmm0, rsi

; 50   :     time_taken *= 1e-9;

  001c3	c5 fb 59 0d 00
	00 00 00	 vmulsd	 xmm1, xmm0, QWORD PTR __real@3e112e0be826d695

; 51   :     cout << "Time taken by Iavx program is : " << fixed << setprecision(9) << time_taken << " sec" << endl;

  001cb	48 8b cb	 mov	 rcx, rbx
  001ce	ff 15 00 00 00
	00		 call	 QWORD PTR __imp_??6?$basic_ostream@DU?$char_traits@D@std@@@std@@QEAAAEAV01@N@Z
  001d4	48 8b c8	 mov	 rcx, rax
  001d7	48 8d 15 00 00
	00 00		 lea	 rdx, OFFSET FLAT:??_C@_04IBFKBJDL@?5sec@
  001de	e8 00 00 00 00	 call	 ??$?6U?$char_traits@D@std@@@std@@YAAEAV?$basic_ostream@DU?$char_traits@D@std@@@0@AEAV10@PEBD@Z ; std::operator<<<std::char_traits<char> >
  001e3	48 8b c8	 mov	 rcx, rax
  001e6	48 8d 15 00 00
	00 00		 lea	 rdx, OFFSET FLAT:??$endl@DU?$char_traits@D@std@@@std@@YAAEAV?$basic_ostream@DU?$char_traits@D@std@@@0@AEAV10@@Z ; std::endl<char,std::char_traits<char> >
  001ed	ff 15 00 00 00
	00		 call	 QWORD PTR __imp_??6?$basic_ostream@DU?$char_traits@D@std@@@std@@QEAAAEAV01@P6AAEAV01@AEAV01@@Z@Z
; File C:\Program Files (x86)\Microsoft Visual Studio\2019\Community\VC\Tools\MSVC\14.29.30133\include\chrono

; 705  :             const long long _Freq = _Query_perf_frequency(); // doesn't change after system boot

  001f3	e8 00 00 00 00	 call	 _Query_perf_frequency
  001f8	48 8b d8	 mov	 rbx, rax

; 706  :             const long long _Ctr  = _Query_perf_counter();

  001fb	e8 00 00 00 00	 call	 _Query_perf_counter

; 714  :             const long long _Part  = (_Ctr % _Freq) * period::den / _Freq;

  00200	48 99		 cdq
; File E:\Visual_Studio_Community\Files\testsolution01\Ch01\Ch01.cpp

; 54   :     CalcZ_Cpp(z, x, y, size);

  00202	41 b9 08 00 00
	00		 mov	 r9d, 8
; File C:\Program Files (x86)\Microsoft Visual Studio\2019\Community\VC\Tools\MSVC\14.29.30133\include\chrono

; 714  :             const long long _Part  = (_Ctr % _Freq) * period::den / _Freq;

  00208	48 f7 fb	 idiv	 rbx
; File E:\Visual_Studio_Community\Files\testsolution01\Ch01\Ch01.cpp

; 54   :     CalcZ_Cpp(z, x, y, size);

  0020b	4d 8b c6	 mov	 r8, r14
; File C:\Program Files (x86)\Microsoft Visual Studio\2019\Community\VC\Tools\MSVC\14.29.30133\include\chrono

; 714  :             const long long _Part  = (_Ctr % _Freq) * period::den / _Freq;

  0020e	48 8b c8	 mov	 rcx, rax
  00211	48 69 c2 00 ca
	9a 3b		 imul	 rax, rdx, 1000000000	; 3b9aca00H
  00218	48 69 f9 00 ca
	9a 3b		 imul	 rdi, rcx, 1000000000	; 3b9aca00H
  0021f	48 99		 cdq
; File E:\Visual_Studio_Community\Files\testsolution01\Ch01\Ch01.cpp

; 54   :     CalcZ_Cpp(z, x, y, size);

  00221	49 8b cf	 mov	 rcx, r15
; File C:\Program Files (x86)\Microsoft Visual Studio\2019\Community\VC\Tools\MSVC\14.29.30133\include\chrono

; 714  :             const long long _Part  = (_Ctr % _Freq) * period::den / _Freq;

  00224	48 f7 fb	 idiv	 rbx
; File E:\Visual_Studio_Community\Files\testsolution01\Ch01\Ch01.cpp

; 54   :     CalcZ_Cpp(z, x, y, size);

  00227	48 8b d5	 mov	 rdx, rbp
; File C:\Program Files (x86)\Microsoft Visual Studio\2019\Community\VC\Tools\MSVC\14.29.30133\include\chrono

; 715  :             return time_point(duration(_Whole + _Part));

  0022a	48 03 f8	 add	 rdi, rax
; File E:\Visual_Studio_Community\Files\testsolution01\Ch01\Ch01.cpp

; 54   :     CalcZ_Cpp(z, x, y, size);

  0022d	e8 00 00 00 00	 call	 ?CalcZ_Cpp@@YAXPEAMPEBM1_K@Z ; CalcZ_Cpp
; File C:\Program Files (x86)\Microsoft Visual Studio\2019\Community\VC\Tools\MSVC\14.29.30133\include\chrono

; 705  :             const long long _Freq = _Query_perf_frequency(); // doesn't change after system boot

  00232	e8 00 00 00 00	 call	 _Query_perf_frequency
  00237	48 8b d8	 mov	 rbx, rax

; 706  :             const long long _Ctr  = _Query_perf_counter();

  0023a	e8 00 00 00 00	 call	 _Query_perf_counter

; 714  :             const long long _Part  = (_Ctr % _Freq) * period::den / _Freq;

  0023f	48 99		 cdq
  00241	48 f7 fb	 idiv	 rbx
  00244	48 8b c8	 mov	 rcx, rax
  00247	48 69 c2 00 ca
	9a 3b		 imul	 rax, rdx, 1000000000	; 3b9aca00H
  0024e	48 69 f1 00 ca
	9a 3b		 imul	 rsi, rcx, 1000000000	; 3b9aca00H
  00255	48 99		 cdq
; File E:\Visual_Studio_Community\Files\testsolution01\Ch01\Ch01.cpp

; 58   :     cout << "Time taken by Cpp program is  : " << fixed << setprecision(9) << time_taken << " sec" << endl;

  00257	48 8d 4c 24 20	 lea	 rcx, QWORD PTR $T2[rsp]
; File C:\Program Files (x86)\Microsoft Visual Studio\2019\Community\VC\Tools\MSVC\14.29.30133\include\chrono

; 714  :             const long long _Part  = (_Ctr % _Freq) * period::den / _Freq;

  0025c	48 f7 fb	 idiv	 rbx
; File E:\Visual_Studio_Community\Files\testsolution01\Ch01\Ch01.cpp

; 58   :     cout << "Time taken by Cpp program is  : " << fixed << setprecision(9) << time_taken << " sec" << endl;

  0025f	ba 09 00 00 00	 mov	 edx, 9
; File C:\Program Files (x86)\Microsoft Visual Studio\2019\Community\VC\Tools\MSVC\14.29.30133\include\chrono

; 715  :             return time_point(duration(_Whole + _Part));

  00264	48 03 f0	 add	 rsi, rax

; 314  :         return _CD(_CD(_Left).count() - _CD(_Right).count());

  00267	48 2b f7	 sub	 rsi, rdi
; File E:\Visual_Studio_Community\Files\testsolution01\Ch01\Ch01.cpp

; 58   :     cout << "Time taken by Cpp program is  : " << fixed << setprecision(9) << time_taken << " sec" << endl;

  0026a	e8 00 00 00 00	 call	 ?setprecision@std@@YA?AU?$_Smanip@_J@1@_J@Z ; std::setprecision
  0026f	48 8b 0d 00 00
	00 00		 mov	 rcx, QWORD PTR __imp_?cout@std@@3V?$basic_ostream@DU?$char_traits@D@std@@@1@A
  00276	48 8d 15 00 00
	00 00		 lea	 rdx, OFFSET FLAT:??_C@_0CB@NOJKNLMI@Time?5taken?5by?5Cpp?5program?5is?5?5?3@
  0027d	48 8b f8	 mov	 rdi, rax
  00280	e8 00 00 00 00	 call	 ??$?6U?$char_traits@D@std@@@std@@YAAEAV?$basic_ostream@DU?$char_traits@D@std@@@0@AEAV10@PEBD@Z ; std::operator<<<std::char_traits<char> >
  00285	48 8b c8	 mov	 rcx, rax
  00288	48 8d 15 00 00
	00 00		 lea	 rdx, OFFSET FLAT:?fixed@std@@YAAEAVios_base@1@AEAV21@@Z ; std::fixed
  0028f	ff 15 00 00 00
	00		 call	 QWORD PTR __imp_??6?$basic_ostream@DU?$char_traits@D@std@@@std@@QEAAAEAV01@P6AAEAVios_base@1@AEAV21@@Z@Z
; File C:\Program Files (x86)\Microsoft Visual Studio\2019\Community\VC\Tools\MSVC\14.29.30133\include\iomanip

; 424  :     (*_Manip._Pfun)(_Ostr, _Manip._Manarg);

  00295	48 8b 57 08	 mov	 rdx, QWORD PTR [rdi+8]
; File E:\Visual_Studio_Community\Files\testsolution01\Ch01\Ch01.cpp

; 58   :     cout << "Time taken by Cpp program is  : " << fixed << setprecision(9) << time_taken << " sec" << endl;

  00299	48 8b d8	 mov	 rbx, rax
; File C:\Program Files (x86)\Microsoft Visual Studio\2019\Community\VC\Tools\MSVC\14.29.30133\include\iomanip

; 424  :     (*_Manip._Pfun)(_Ostr, _Manip._Manarg);

  0029c	48 8b 08	 mov	 rcx, QWORD PTR [rax]
  0029f	48 63 49 04	 movsxd	 rcx, DWORD PTR [rcx+4]
  002a3	48 03 c8	 add	 rcx, rax
  002a6	ff 17		 call	 QWORD PTR [rdi]
  002a8	c5 f8 57 c0	 vxorps	 xmm0, xmm0, xmm0
; File E:\Visual_Studio_Community\Files\testsolution01\Ch01\Ch01.cpp

; 56   :     time_taken = chrono::duration_cast<chrono::nanoseconds>(end - start).count();

  002ac	c4 e1 fb 2a c6	 vcvtsi2sd xmm0, xmm0, rsi

; 57   :     time_taken *= 1e-9;

  002b1	c5 fb 59 0d 00
	00 00 00	 vmulsd	 xmm1, xmm0, QWORD PTR __real@3e112e0be826d695

; 58   :     cout << "Time taken by Cpp program is  : " << fixed << setprecision(9) << time_taken << " sec" << endl;

  002b9	48 8b cb	 mov	 rcx, rbx
  002bc	ff 15 00 00 00
	00		 call	 QWORD PTR __imp_??6?$basic_ostream@DU?$char_traits@D@std@@@std@@QEAAAEAV01@N@Z
  002c2	48 8b c8	 mov	 rcx, rax
  002c5	48 8d 15 00 00
	00 00		 lea	 rdx, OFFSET FLAT:??_C@_04IBFKBJDL@?5sec@
  002cc	e8 00 00 00 00	 call	 ??$?6U?$char_traits@D@std@@@std@@YAAEAV?$basic_ostream@DU?$char_traits@D@std@@@0@AEAV10@PEBD@Z ; std::operator<<<std::char_traits<char> >
  002d1	48 8b c8	 mov	 rcx, rax
  002d4	48 8d 15 00 00
	00 00		 lea	 rdx, OFFSET FLAT:??$endl@DU?$char_traits@D@std@@@std@@YAAEAV?$basic_ostream@DU?$char_traits@D@std@@@0@AEAV10@@Z ; std::endl<char,std::char_traits<char> >
  002db	ff 15 00 00 00
	00		 call	 QWORD PTR __imp_??6?$basic_ostream@DU?$char_traits@D@std@@@std@@QEAAAEAV01@P6AAEAV01@AEAV01@@Z@Z
; File C:\Program Files (x86)\Microsoft Visual Studio\2019\Community\VC\Tools\MSVC\14.29.30133\include\chrono

; 705  :             const long long _Freq = _Query_perf_frequency(); // doesn't change after system boot

  002e1	e8 00 00 00 00	 call	 _Query_perf_frequency
  002e6	48 8b d8	 mov	 rbx, rax

; 706  :             const long long _Ctr  = _Query_perf_counter();

  002e9	e8 00 00 00 00	 call	 _Query_perf_counter

; 714  :             const long long _Part  = (_Ctr % _Freq) * period::den / _Freq;

  002ee	48 99		 cdq
; File E:\Visual_Studio_Community\Files\testsolution01\Ch01\Ch01.cpp

; 61   :     CalcZ_Aavx(z, x, y, size);

  002f0	41 b9 08 00 00
	00		 mov	 r9d, 8
; File C:\Program Files (x86)\Microsoft Visual Studio\2019\Community\VC\Tools\MSVC\14.29.30133\include\chrono

; 714  :             const long long _Part  = (_Ctr % _Freq) * period::den / _Freq;

  002f6	48 f7 fb	 idiv	 rbx
; File E:\Visual_Studio_Community\Files\testsolution01\Ch01\Ch01.cpp

; 61   :     CalcZ_Aavx(z, x, y, size);

  002f9	4d 8b c6	 mov	 r8, r14
; File C:\Program Files (x86)\Microsoft Visual Studio\2019\Community\VC\Tools\MSVC\14.29.30133\include\chrono

; 714  :             const long long _Part  = (_Ctr % _Freq) * period::den / _Freq;

  002fc	48 8b c8	 mov	 rcx, rax
  002ff	48 69 c2 00 ca
	9a 3b		 imul	 rax, rdx, 1000000000	; 3b9aca00H
  00306	48 69 f9 00 ca
	9a 3b		 imul	 rdi, rcx, 1000000000	; 3b9aca00H
  0030d	48 99		 cdq
; File E:\Visual_Studio_Community\Files\testsolution01\Ch01\Ch01.cpp

; 61   :     CalcZ_Aavx(z, x, y, size);

  0030f	49 8b cf	 mov	 rcx, r15
; File C:\Program Files (x86)\Microsoft Visual Studio\2019\Community\VC\Tools\MSVC\14.29.30133\include\chrono

; 714  :             const long long _Part  = (_Ctr % _Freq) * period::den / _Freq;

  00312	48 f7 fb	 idiv	 rbx
; File E:\Visual_Studio_Community\Files\testsolution01\Ch01\Ch01.cpp

; 61   :     CalcZ_Aavx(z, x, y, size);

  00315	48 8b d5	 mov	 rdx, rbp
; File C:\Program Files (x86)\Microsoft Visual Studio\2019\Community\VC\Tools\MSVC\14.29.30133\include\chrono

; 715  :             return time_point(duration(_Whole + _Part));

  00318	48 03 f8	 add	 rdi, rax
; File E:\Visual_Studio_Community\Files\testsolution01\Ch01\Ch01.cpp

; 61   :     CalcZ_Aavx(z, x, y, size);

  0031b	e8 00 00 00 00	 call	 CalcZ_Aavx
; File C:\Program Files (x86)\Microsoft Visual Studio\2019\Community\VC\Tools\MSVC\14.29.30133\include\chrono

; 705  :             const long long _Freq = _Query_perf_frequency(); // doesn't change after system boot

  00320	e8 00 00 00 00	 call	 _Query_perf_frequency
  00325	48 8b d8	 mov	 rbx, rax

; 706  :             const long long _Ctr  = _Query_perf_counter();

  00328	e8 00 00 00 00	 call	 _Query_perf_counter

; 714  :             const long long _Part  = (_Ctr % _Freq) * period::den / _Freq;

  0032d	48 99		 cdq
  0032f	48 f7 fb	 idiv	 rbx
  00332	48 8b c8	 mov	 rcx, rax
  00335	48 69 c2 00 ca
	9a 3b		 imul	 rax, rdx, 1000000000	; 3b9aca00H
  0033c	48 69 f1 00 ca
	9a 3b		 imul	 rsi, rcx, 1000000000	; 3b9aca00H
  00343	48 99		 cdq
; File E:\Visual_Studio_Community\Files\testsolution01\Ch01\Ch01.cpp

; 65   :     cout << "Time taken by Aavx program is : " << fixed << setprecision(9) << time_taken << " sec" << endl;

  00345	48 8d 4c 24 20	 lea	 rcx, QWORD PTR $T1[rsp]
; File C:\Program Files (x86)\Microsoft Visual Studio\2019\Community\VC\Tools\MSVC\14.29.30133\include\chrono

; 714  :             const long long _Part  = (_Ctr % _Freq) * period::den / _Freq;

  0034a	48 f7 fb	 idiv	 rbx
; File E:\Visual_Studio_Community\Files\testsolution01\Ch01\Ch01.cpp

; 65   :     cout << "Time taken by Aavx program is : " << fixed << setprecision(9) << time_taken << " sec" << endl;

  0034d	ba 09 00 00 00	 mov	 edx, 9
; File C:\Program Files (x86)\Microsoft Visual Studio\2019\Community\VC\Tools\MSVC\14.29.30133\include\chrono

; 715  :             return time_point(duration(_Whole + _Part));

  00352	48 03 f0	 add	 rsi, rax

; 314  :         return _CD(_CD(_Left).count() - _CD(_Right).count());

  00355	48 2b f7	 sub	 rsi, rdi
; File E:\Visual_Studio_Community\Files\testsolution01\Ch01\Ch01.cpp

; 65   :     cout << "Time taken by Aavx program is : " << fixed << setprecision(9) << time_taken << " sec" << endl;

  00358	e8 00 00 00 00	 call	 ?setprecision@std@@YA?AU?$_Smanip@_J@1@_J@Z ; std::setprecision
  0035d	48 8b 0d 00 00
	00 00		 mov	 rcx, QWORD PTR __imp_?cout@std@@3V?$basic_ostream@DU?$char_traits@D@std@@@1@A
  00364	48 8d 15 00 00
	00 00		 lea	 rdx, OFFSET FLAT:??_C@_0CB@KGIIJFCA@Time?5taken?5by?5Aavx?5program?5is?5?3@
  0036b	48 8b f8	 mov	 rdi, rax
  0036e	e8 00 00 00 00	 call	 ??$?6U?$char_traits@D@std@@@std@@YAAEAV?$basic_ostream@DU?$char_traits@D@std@@@0@AEAV10@PEBD@Z ; std::operator<<<std::char_traits<char> >
  00373	48 8b c8	 mov	 rcx, rax
  00376	48 8d 15 00 00
	00 00		 lea	 rdx, OFFSET FLAT:?fixed@std@@YAAEAVios_base@1@AEAV21@@Z ; std::fixed
  0037d	ff 15 00 00 00
	00		 call	 QWORD PTR __imp_??6?$basic_ostream@DU?$char_traits@D@std@@@std@@QEAAAEAV01@P6AAEAVios_base@1@AEAV21@@Z@Z
; File C:\Program Files (x86)\Microsoft Visual Studio\2019\Community\VC\Tools\MSVC\14.29.30133\include\iomanip

; 424  :     (*_Manip._Pfun)(_Ostr, _Manip._Manarg);

  00383	48 8b 57 08	 mov	 rdx, QWORD PTR [rdi+8]
; File E:\Visual_Studio_Community\Files\testsolution01\Ch01\Ch01.cpp

; 65   :     cout << "Time taken by Aavx program is : " << fixed << setprecision(9) << time_taken << " sec" << endl;

  00387	48 8b d8	 mov	 rbx, rax
; File C:\Program Files (x86)\Microsoft Visual Studio\2019\Community\VC\Tools\MSVC\14.29.30133\include\iomanip

; 424  :     (*_Manip._Pfun)(_Ostr, _Manip._Manarg);

  0038a	48 8b 08	 mov	 rcx, QWORD PTR [rax]
  0038d	48 63 49 04	 movsxd	 rcx, DWORD PTR [rcx+4]
  00391	48 03 c8	 add	 rcx, rax
  00394	ff 17		 call	 QWORD PTR [rdi]
  00396	c5 f8 57 c0	 vxorps	 xmm0, xmm0, xmm0
; File E:\Visual_Studio_Community\Files\testsolution01\Ch01\Ch01.cpp

; 63   :     time_taken = chrono::duration_cast<chrono::nanoseconds>(end - start).count();

  0039a	c4 e1 fb 2a c6	 vcvtsi2sd xmm0, xmm0, rsi

; 64   :     time_taken *= 1e-9;

  0039f	c5 fb 59 0d 00
	00 00 00	 vmulsd	 xmm1, xmm0, QWORD PTR __real@3e112e0be826d695

; 65   :     cout << "Time taken by Aavx program is : " << fixed << setprecision(9) << time_taken << " sec" << endl;

  003a7	48 8b cb	 mov	 rcx, rbx
  003aa	ff 15 00 00 00
	00		 call	 QWORD PTR __imp_??6?$basic_ostream@DU?$char_traits@D@std@@@std@@QEAAAEAV01@N@Z
  003b0	48 8b c8	 mov	 rcx, rax
  003b3	48 8d 15 00 00
	00 00		 lea	 rdx, OFFSET FLAT:??_C@_04IBFKBJDL@?5sec@
  003ba	e8 00 00 00 00	 call	 ??$?6U?$char_traits@D@std@@@std@@YAAEAV?$basic_ostream@DU?$char_traits@D@std@@@0@AEAV10@PEBD@Z ; std::operator<<<std::char_traits<char> >
  003bf	48 8b c8	 mov	 rcx, rax
  003c2	48 8d 15 00 00
	00 00		 lea	 rdx, OFFSET FLAT:??$endl@DU?$char_traits@D@std@@@std@@YAAEAV?$basic_ostream@DU?$char_traits@D@std@@@0@AEAV10@@Z ; std::endl<char,std::char_traits<char> >
  003c9	ff 15 00 00 00
	00		 call	 QWORD PTR __imp_??6?$basic_ostream@DU?$char_traits@D@std@@@std@@QEAAAEAV01@P6AAEAV01@AEAV01@@Z@Z

; 66   :     
; 67   : 
; 68   : 
; 69   :     //for (int i = 0; i < 100; i++) {
; 70   :     //    cout << x[i]<<" "<<y[i]<<" "<<z[i] << " \n";
; 71   :     //}
; 72   : }

  003cf	48 8b 5c 24 50	 mov	 rbx, QWORD PTR [rsp+80]
  003d4	33 c0		 xor	 eax, eax
  003d6	48 8b 6c 24 58	 mov	 rbp, QWORD PTR [rsp+88]
  003db	48 8b 74 24 60	 mov	 rsi, QWORD PTR [rsp+96]
  003e0	48 83 c4 30	 add	 rsp, 48			; 00000030H
  003e4	41 5f		 pop	 r15
  003e6	41 5e		 pop	 r14
  003e8	5f		 pop	 rdi
  003e9	c3		 ret	 0
main	ENDP
_TEXT	ENDS
; Function compile flags: /Ogtpy
; File E:\Visual_Studio_Community\Files\testsolution01\Ch01\Ch01.cpp
;	COMDAT ?CalcZ_Iavx@@YAXPEAMPEBM1_K@Z
_TEXT	SEGMENT
z$ = 48
x$ = 56
y$ = 64
n$ = 72
?CalcZ_Iavx@@YAXPEAMPEBM1_K@Z PROC			; CalcZ_Iavx, COMDAT

; 18   : {

$LN38:
  00000	48 89 54 24 10	 mov	 QWORD PTR [rsp+16], rdx
  00005	48 89 4c 24 08	 mov	 QWORD PTR [rsp+8], rcx
  0000a	53		 push	 rbx
  0000b	57		 push	 rdi
  0000c	48 83 ec 18	 sub	 rsp, 24

; 19   :     size_t i = 0;

  00010	45 33 d2	 xor	 r10d, r10d
  00013	48 8b d9	 mov	 rbx, rcx

; 20   :     const size_t num_simd_elements = 8;
; 21   :     for (; n - i >= num_simd_elements; i += num_simd_elements)

  00016	49 83 f9 08	 cmp	 r9, 8
  0001a	72 39		 jb	 SHORT $LN3@CalcZ_Iavx
  0001c	48 8b ca	 mov	 rcx, rdx
  0001f	48 8b fb	 mov	 rdi, rbx
  00022	49 2b c8	 sub	 rcx, r8
  00025	4d 8b d8	 mov	 r11, r8
  00028	49 2b f8	 sub	 rdi, r8
  0002b	0f 1f 44 00 00	 npad	 5
$LL4@CalcZ_Iavx:

; 22   :     {
; 23   :         // Calculate z[i:i+7] = x[i:i+7] + y[i:i+7]
; 24   :         __m256 x_vals = _mm256_loadu_ps(&x[i]);
; 25   :         __m256 y_vals = _mm256_loadu_ps(&y[i]);
; 26   :         __m256 z_vals = _mm256_add_ps(x_vals, y_vals);

  00030	c4 a1 7c 10 04
	19		 vmovups ymm0, YMMWORD PTR [rcx+r11]
  00036	c4 c1 7c 58 0b	 vaddps	 ymm1, ymm0, YMMWORD PTR [r11]
  0003b	49 83 c2 08	 add	 r10, 8
  0003f	49 8b c1	 mov	 rax, r9
  00042	49 2b c2	 sub	 rax, r10

; 27   :         _mm256_storeu_ps(&z[i], z_vals);

  00045	c4 a1 7c 11 0c
	1f		 vmovups YMMWORD PTR [rdi+r11], ymm1
  0004b	4d 8d 5b 20	 lea	 r11, QWORD PTR [r11+32]
  0004f	48 83 f8 08	 cmp	 rax, 8
  00053	73 db		 jae	 SHORT $LL4@CalcZ_Iavx
$LN3@CalcZ_Iavx:

; 28   :     }
; 29   :     // Calculate z[i] = x[i] + y[i] for any remaining elements
; 30   :     for (; i < n; i += 1)

  00055	49 8b c9	 mov	 rcx, r9
  00058	49 2b ca	 sub	 rcx, r10
  0005b	4d 3b d1	 cmp	 r10, r9
  0005e	0f 83 d2 01 00
	00		 jae	 $LN23@CalcZ_Iavx
  00064	48 89 74 24 40	 mov	 QWORD PTR [rsp+64], rsi
  00069	4c 89 64 24 48	 mov	 QWORD PTR [rsp+72], r12
  0006e	4c 89 6c 24 10	 mov	 QWORD PTR [rsp+16], r13
  00073	4c 89 74 24 08	 mov	 QWORD PTR [rsp+8], r14
  00078	4c 89 3c 24	 mov	 QWORD PTR [rsp], r15
  0007c	48 83 f9 40	 cmp	 rcx, 64			; 00000040H
  00080	0f 82 d6 00 00
	00		 jb	 $LN31@CalcZ_Iavx
  00086	4e 8d 1c 8d fc
	ff ff ff	 lea	 r11, QWORD PTR [r9*4-4]
  0008e	4b 8d 04 03	 lea	 rax, QWORD PTR [r11+r8]
  00092	4a 8d 34 93	 lea	 rsi, QWORD PTR [rbx+r10*4]
  00096	49 8d 3c 1b	 lea	 rdi, QWORD PTR [r11+rbx]
  0009a	4f 8d 34 90	 lea	 r14, QWORD PTR [r8+r10*4]
  0009e	48 3b f0	 cmp	 rsi, rax
  000a1	77 09		 ja	 SHORT $LN15@CalcZ_Iavx
  000a3	49 3b fe	 cmp	 rdi, r14
  000a6	0f 83 b0 00 00
	00		 jae	 $LN31@CalcZ_Iavx
$LN15@CalcZ_Iavx:
  000ac	49 8d 04 13	 lea	 rax, QWORD PTR [r11+rdx]
  000b0	4e 8d 34 92	 lea	 r14, QWORD PTR [rdx+r10*4]
  000b4	48 3b f0	 cmp	 rsi, rax
  000b7	77 09		 ja	 SHORT $LN16@CalcZ_Iavx
  000b9	49 3b fe	 cmp	 rdi, r14
  000bc	0f 83 9a 00 00
	00		 jae	 $LN31@CalcZ_Iavx
$LN16@CalcZ_Iavx:
  000c2	83 e1 3f	 and	 ecx, 63			; 0000003fH
  000c5	49 8b f1	 mov	 rsi, r9
  000c8	48 2b f1	 sub	 rsi, rcx
  000cb	4d 8b d8	 mov	 r11, r8
  000ce	48 8d 4a 40	 lea	 rcx, QWORD PTR [rdx+64]
  000d2	4c 2b da	 sub	 r11, rdx
  000d5	4a 8d 0c 91	 lea	 rcx, QWORD PTR [rcx+r10*4]
  000d9	48 8b fb	 mov	 rdi, rbx
  000dc	48 2b fa	 sub	 rdi, rdx
  000df	90		 npad	 1
$LL7@CalcZ_Iavx:

; 31   :         z[i] = x[i] + y[i];

  000e0	62 d1 7c 48 10
	0c 0b		 vmovups zmm1, ZMMWORD PTR [r11+rcx]
  000e7	62 b1 7c 48 10
	44 19 ff	 vmovups zmm0, ZMMWORD PTR [rcx+r11-64]
  000ef	62 f1 7c 48 58
	41 ff		 vaddps	 zmm0, zmm0, ZMMWORD PTR [rcx-64]
  000f6	62 f1 7c 48 11
	44 39 ff	 vmovups ZMMWORD PTR [rcx+rdi-64], zmm0
  000fe	62 f1 74 48 58
	01		 vaddps	 zmm0, zmm1, ZMMWORD PTR [rcx]
  00104	62 b1 7c 48 10
	4c 19 01	 vmovups zmm1, ZMMWORD PTR [rcx+r11+64]
  0010c	62 f1 7c 48 11
	04 0f		 vmovups ZMMWORD PTR [rdi+rcx], zmm0
  00113	62 f1 74 48 58
	41 01		 vaddps	 zmm0, zmm1, ZMMWORD PTR [rcx+64]
  0011a	62 b1 7c 48 10
	4c 19 02	 vmovups zmm1, ZMMWORD PTR [rcx+r11+128]
  00122	62 f1 7c 48 11
	44 39 01	 vmovups ZMMWORD PTR [rcx+rdi+64], zmm0
  0012a	62 f1 74 48 58
	41 02		 vaddps	 zmm0, zmm1, ZMMWORD PTR [rcx+128]
  00131	49 83 c2 40	 add	 r10, 64			; 00000040H
  00135	62 f1 7c 48 11
	44 39 02	 vmovups ZMMWORD PTR [rcx+rdi+128], zmm0
  0013d	48 8d 89 00 01
	00 00		 lea	 rcx, QWORD PTR [rcx+256]
  00144	4c 3b d6	 cmp	 r10, rsi
  00147	72 97		 jb	 SHORT $LL7@CalcZ_Iavx

; 28   :     }
; 29   :     // Calculate z[i] = x[i] + y[i] for any remaining elements
; 30   :     for (; i < n; i += 1)

  00149	48 8b 54 24 38	 mov	 rdx, QWORD PTR x$[rsp]
  0014e	48 8b 5c 24 30	 mov	 rbx, QWORD PTR z$[rsp]
  00153	4d 3b d1	 cmp	 r10, r9
  00156	0f 83 c2 00 00
	00		 jae	 $LN36@CalcZ_Iavx
$LN31@CalcZ_Iavx:
  0015c	49 8b c1	 mov	 rax, r9
  0015f	49 2b c2	 sub	 rax, r10
  00162	48 83 f8 04	 cmp	 rax, 4
  00166	0f 82 8d 00 00
	00		 jb	 $LN30@CalcZ_Iavx
  0016c	49 8b c9	 mov	 rcx, r9
  0016f	49 8d 40 04	 lea	 rax, QWORD PTR [r8+4]
  00173	49 2b ca	 sub	 rcx, r10
  00176	4a 8d 04 90	 lea	 rax, QWORD PTR [rax+r10*4]
  0017a	48 83 e9 04	 sub	 rcx, 4
  0017e	4c 8b da	 mov	 r11, rdx
  00181	48 8b fb	 mov	 rdi, rbx
  00184	48 c1 e9 02	 shr	 rcx, 2
  00188	4d 2b d8	 sub	 r11, r8
  0018b	49 2b f8	 sub	 rdi, r8
  0018e	48 ff c1	 inc	 rcx
  00191	4d 8d 14 8a	 lea	 r10, QWORD PTR [r10+rcx*4]
  00195	66 66 66 0f 1f
	84 00 00 00 00
	00		 npad	 11
$LL25@CalcZ_Iavx:

; 31   :         z[i] = x[i] + y[i];

  001a0	c4 a1 7a 10 44
	18 fc		 vmovss	 xmm0, DWORD PTR [rax+r11-4]
  001a7	c5 fa 58 48 fc	 vaddss	 xmm1, xmm0, DWORD PTR [rax-4]
  001ac	c5 fa 11 4c 07
	fc		 vmovss	 DWORD PTR [rdi+rax-4], xmm1
  001b2	c4 c1 7a 10 14
	03		 vmovss	 xmm2, DWORD PTR [r11+rax]
  001b8	c5 ea 58 00	 vaddss	 xmm0, xmm2, DWORD PTR [rax]
  001bc	c5 fa 11 04 07	 vmovss	 DWORD PTR [rdi+rax], xmm0
  001c1	c4 c1 7a 10 4c
	03 04		 vmovss	 xmm1, DWORD PTR [r11+rax+4]
  001c8	c5 f2 58 50 04	 vaddss	 xmm2, xmm1, DWORD PTR [rax+4]
  001cd	c5 fa 11 54 07
	04		 vmovss	 DWORD PTR [rdi+rax+4], xmm2
  001d3	c4 c1 7a 10 44
	03 08		 vmovss	 xmm0, DWORD PTR [r11+rax+8]
  001da	c5 fa 58 48 08	 vaddss	 xmm1, xmm0, DWORD PTR [rax+8]
  001df	c5 fa 11 4c 07
	08		 vmovss	 DWORD PTR [rdi+rax+8], xmm1
  001e5	48 8d 40 10	 lea	 rax, QWORD PTR [rax+16]
  001e9	48 83 e9 01	 sub	 rcx, 1
  001ed	75 b1		 jne	 SHORT $LL25@CalcZ_Iavx

; 28   :     }
; 29   :     // Calculate z[i] = x[i] + y[i] for any remaining elements
; 30   :     for (; i < n; i += 1)

  001ef	48 8b 54 24 38	 mov	 rdx, QWORD PTR x$[rsp]
  001f4	4d 3b d1	 cmp	 r10, r9
  001f7	73 25		 jae	 SHORT $LN36@CalcZ_Iavx
$LN30@CalcZ_Iavx:
  001f9	49 2b d0	 sub	 rdx, r8
  001fc	4b 8d 04 90	 lea	 rax, QWORD PTR [r8+r10*4]
  00200	49 2b d8	 sub	 rbx, r8
  00203	4d 2b ca	 sub	 r9, r10
$LC13@CalcZ_Iavx:

; 31   :         z[i] = x[i] + y[i];

  00206	c5 fa 10 04 10	 vmovss	 xmm0, DWORD PTR [rax+rdx]
  0020b	c5 fa 58 08	 vaddss	 xmm1, xmm0, DWORD PTR [rax]
  0020f	c5 fa 11 0c 18	 vmovss	 DWORD PTR [rax+rbx], xmm1
  00214	48 8d 40 04	 lea	 rax, QWORD PTR [rax+4]
  00218	49 83 e9 01	 sub	 r9, 1
  0021c	75 e8		 jne	 SHORT $LC13@CalcZ_Iavx
$LN36@CalcZ_Iavx:
  0021e	4c 8b 74 24 08	 mov	 r14, QWORD PTR [rsp+8]
  00223	4c 8b 6c 24 10	 mov	 r13, QWORD PTR [rsp+16]
  00228	4c 8b 64 24 48	 mov	 r12, QWORD PTR [rsp+72]
  0022d	48 8b 74 24 40	 mov	 rsi, QWORD PTR [rsp+64]
  00232	4c 8b 3c 24	 mov	 r15, QWORD PTR [rsp]
$LN23@CalcZ_Iavx:

; 32   : }

  00236	c5 f8 77	 vzeroupper
  00239	48 83 c4 18	 add	 rsp, 24
  0023d	5f		 pop	 rdi
  0023e	5b		 pop	 rbx
  0023f	c3		 ret	 0
?CalcZ_Iavx@@YAXPEAMPEBM1_K@Z ENDP			; CalcZ_Iavx
_TEXT	ENDS
; Function compile flags: /Ogtpy
; File E:\Visual_Studio_Community\Files\testsolution01\Ch01\Ch01.cpp
;	COMDAT ?CalcZ_Cpp@@YAXPEAMPEBM1_K@Z
_TEXT	SEGMENT
z$ = 48
x$ = 56
y$ = 64
n$ = 72
?CalcZ_Cpp@@YAXPEAMPEBM1_K@Z PROC			; CalcZ_Cpp, COMDAT

; 13   : {

$LN33:
  00000	48 8b c4	 mov	 rax, rsp
  00003	48 89 50 10	 mov	 QWORD PTR [rax+16], rdx
  00007	48 89 48 08	 mov	 QWORD PTR [rax+8], rcx
  0000b	48 83 ec 28	 sub	 rsp, 40			; 00000028H

; 14   :     for (size_t i = 0; i < n; i++)

  0000f	45 33 d2	 xor	 r10d, r10d
  00012	4c 8b d9	 mov	 r11, rcx
  00015	4d 85 c9	 test	 r9, r9
  00018	0f 84 c4 01 00
	00		 je	 $LN17@CalcZ_Cpp
  0001e	48 89 58 18	 mov	 QWORD PTR [rax+24], rbx
  00022	48 89 70 20	 mov	 QWORD PTR [rax+32], rsi
  00026	48 89 78 f8	 mov	 QWORD PTR [rax-8], rdi
  0002a	4c 89 60 f0	 mov	 QWORD PTR [rax-16], r12
  0002e	4c 89 68 e8	 mov	 QWORD PTR [rax-24], r13
  00032	4c 89 70 e0	 mov	 QWORD PTR [rax-32], r14
  00036	4c 89 3c 24	 mov	 QWORD PTR [rsp], r15
  0003a	49 83 f9 40	 cmp	 r9, 64			; 00000040H
  0003e	0f 82 c8 00 00
	00		 jb	 $LN24@CalcZ_Cpp
  00044	4a 8d 0c 8d fc
	ff ff ff	 lea	 rcx, QWORD PTR [r9*4-4]
  0004c	4a 8d 04 01	 lea	 rax, QWORD PTR [rcx+r8]
  00050	4a 8d 1c 19	 lea	 rbx, QWORD PTR [rcx+r11]
  00054	4c 3b d8	 cmp	 r11, rax
  00057	77 09		 ja	 SHORT $LN10@CalcZ_Cpp
  00059	49 3b d8	 cmp	 rbx, r8
  0005c	0f 83 aa 00 00
	00		 jae	 $LN24@CalcZ_Cpp
$LN10@CalcZ_Cpp:
  00062	48 8d 04 11	 lea	 rax, QWORD PTR [rcx+rdx]
  00066	4c 3b d8	 cmp	 r11, rax
  00069	77 09		 ja	 SHORT $LN11@CalcZ_Cpp
  0006b	48 3b da	 cmp	 rbx, rdx
  0006e	0f 83 98 00 00
	00		 jae	 $LN24@CalcZ_Cpp
$LN11@CalcZ_Cpp:
  00074	49 8b f1	 mov	 rsi, r9
  00077	48 83 e6 c0	 and	 rsi, -64		; ffffffffffffffc0H
  0007b	49 8b d8	 mov	 rbx, r8
  0007e	48 8d 4a 40	 lea	 rcx, QWORD PTR [rdx+64]
  00082	48 2b da	 sub	 rbx, rdx
  00085	49 8b fb	 mov	 rdi, r11
  00088	48 2b fa	 sub	 rdi, rdx
  0008b	0f 1f 44 00 00	 npad	 5
$LL4@CalcZ_Cpp:

; 15   :         z[i] = x[i] + y[i];

  00090	62 f1 7c 48 10
	0c 0b		 vmovups zmm1, ZMMWORD PTR [rbx+rcx]
  00097	62 f1 7c 48 10
	44 0b ff	 vmovups zmm0, ZMMWORD PTR [rbx+rcx-64]
  0009f	62 f1 7c 48 58
	41 ff		 vaddps	 zmm0, zmm0, ZMMWORD PTR [rcx-64]
  000a6	62 f1 7c 48 11
	44 0f ff	 vmovups ZMMWORD PTR [rdi+rcx-64], zmm0
  000ae	62 f1 74 48 58
	01		 vaddps	 zmm0, zmm1, ZMMWORD PTR [rcx]
  000b4	62 f1 7c 48 10
	4c 0b 01	 vmovups zmm1, ZMMWORD PTR [rbx+rcx+64]
  000bc	62 f1 7c 48 11
	04 0f		 vmovups ZMMWORD PTR [rdi+rcx], zmm0
  000c3	62 f1 74 48 58
	41 01		 vaddps	 zmm0, zmm1, ZMMWORD PTR [rcx+64]
  000ca	62 f1 7c 48 10
	4c 0b 02	 vmovups zmm1, ZMMWORD PTR [rbx+rcx+128]
  000d2	62 f1 7c 48 11
	44 0f 01	 vmovups ZMMWORD PTR [rdi+rcx+64], zmm0
  000da	62 f1 74 48 58
	41 02		 vaddps	 zmm0, zmm1, ZMMWORD PTR [rcx+128]
  000e1	49 83 c2 40	 add	 r10, 64			; 00000040H
  000e5	62 f1 7c 48 11
	44 39 02	 vmovups ZMMWORD PTR [rcx+rdi+128], zmm0
  000ed	48 8d 89 00 01
	00 00		 lea	 rcx, QWORD PTR [rcx+256]
  000f4	4c 3b d6	 cmp	 r10, rsi
  000f7	72 97		 jb	 SHORT $LL4@CalcZ_Cpp

; 14   :     for (size_t i = 0; i < n; i++)

  000f9	48 8b 54 24 38	 mov	 rdx, QWORD PTR x$[rsp]
  000fe	4c 8b 5c 24 30	 mov	 r11, QWORD PTR z$[rsp]
  00103	4d 3b d1	 cmp	 r10, r9
  00106	0f 83 b4 00 00
	00		 jae	 $LN31@CalcZ_Cpp
$LN24@CalcZ_Cpp:
  0010c	49 8b c1	 mov	 rax, r9
  0010f	49 2b c2	 sub	 rax, r10
  00112	48 83 f8 04	 cmp	 rax, 4
  00116	0f 82 7e 00 00
	00		 jb	 $LN23@CalcZ_Cpp
  0011c	49 8b c9	 mov	 rcx, r9
  0011f	49 8d 40 04	 lea	 rax, QWORD PTR [r8+4]
  00123	49 2b ca	 sub	 rcx, r10
  00126	4a 8d 04 90	 lea	 rax, QWORD PTR [rax+r10*4]
  0012a	48 83 e9 04	 sub	 rcx, 4
  0012e	48 8b da	 mov	 rbx, rdx
  00131	49 8b fb	 mov	 rdi, r11
  00134	48 c1 e9 02	 shr	 rcx, 2
  00138	49 2b d8	 sub	 rbx, r8
  0013b	49 2b f8	 sub	 rdi, r8
  0013e	48 ff c1	 inc	 rcx
  00141	4d 8d 14 8a	 lea	 r10, QWORD PTR [r10+rcx*4]
$LL19@CalcZ_Cpp:

; 15   :         z[i] = x[i] + y[i];

  00145	c5 fa 10 44 18
	fc		 vmovss	 xmm0, DWORD PTR [rax+rbx-4]
  0014b	c5 fa 58 48 fc	 vaddss	 xmm1, xmm0, DWORD PTR [rax-4]
  00150	c5 fa 11 4c 07
	fc		 vmovss	 DWORD PTR [rdi+rax-4], xmm1
  00156	c5 fa 10 14 03	 vmovss	 xmm2, DWORD PTR [rbx+rax]
  0015b	c5 ea 58 00	 vaddss	 xmm0, xmm2, DWORD PTR [rax]
  0015f	c5 fa 11 04 07	 vmovss	 DWORD PTR [rdi+rax], xmm0
  00164	c5 fa 10 4c 03
	04		 vmovss	 xmm1, DWORD PTR [rbx+rax+4]
  0016a	c5 f2 58 50 04	 vaddss	 xmm2, xmm1, DWORD PTR [rax+4]
  0016f	c5 fa 11 54 07
	04		 vmovss	 DWORD PTR [rdi+rax+4], xmm2
  00175	c5 fa 10 44 03
	08		 vmovss	 xmm0, DWORD PTR [rbx+rax+8]
  0017b	c5 fa 58 48 08	 vaddss	 xmm1, xmm0, DWORD PTR [rax+8]
  00180	c5 fa 11 4c 07
	08		 vmovss	 DWORD PTR [rdi+rax+8], xmm1
  00186	48 8d 40 10	 lea	 rax, QWORD PTR [rax+16]
  0018a	48 83 e9 01	 sub	 rcx, 1
  0018e	75 b5		 jne	 SHORT $LL19@CalcZ_Cpp

; 14   :     for (size_t i = 0; i < n; i++)

  00190	48 8b 54 24 38	 mov	 rdx, QWORD PTR x$[rsp]
  00195	4d 3b d1	 cmp	 r10, r9
  00198	73 26		 jae	 SHORT $LN31@CalcZ_Cpp
$LN23@CalcZ_Cpp:
  0019a	49 2b d0	 sub	 rdx, r8
  0019d	4b 8d 04 90	 lea	 rax, QWORD PTR [r8+r10*4]
  001a1	4d 2b d8	 sub	 r11, r8
  001a4	4d 2b ca	 sub	 r9, r10
$LC8@CalcZ_Cpp:

; 15   :         z[i] = x[i] + y[i];

  001a7	c5 fa 10 04 10	 vmovss	 xmm0, DWORD PTR [rax+rdx]
  001ac	c5 fa 58 08	 vaddss	 xmm1, xmm0, DWORD PTR [rax]
  001b0	c4 a1 7a 11 0c
	18		 vmovss	 DWORD PTR [rax+r11], xmm1
  001b6	48 8d 40 04	 lea	 rax, QWORD PTR [rax+4]
  001ba	49 83 e9 01	 sub	 r9, 1
  001be	75 e7		 jne	 SHORT $LC8@CalcZ_Cpp
$LN31@CalcZ_Cpp:
  001c0	4c 8b 74 24 08	 mov	 r14, QWORD PTR [rsp+8]
  001c5	4c 8b 6c 24 10	 mov	 r13, QWORD PTR [rsp+16]
  001ca	4c 8b 64 24 18	 mov	 r12, QWORD PTR [rsp+24]
  001cf	48 8b 7c 24 20	 mov	 rdi, QWORD PTR [rsp+32]
  001d4	48 8b 74 24 48	 mov	 rsi, QWORD PTR [rsp+72]
  001d9	48 8b 5c 24 40	 mov	 rbx, QWORD PTR [rsp+64]
  001de	4c 8b 3c 24	 mov	 r15, QWORD PTR [rsp]
$LN17@CalcZ_Cpp:

; 16   : }

  001e2	c5 f8 77	 vzeroupper
  001e5	48 83 c4 28	 add	 rsp, 40			; 00000028H
  001e9	c3		 ret	 0
?CalcZ_Cpp@@YAXPEAMPEBM1_K@Z ENDP			; CalcZ_Cpp
_TEXT	ENDS
; Function compile flags: /Ogtpy
; File C:\Program Files (x86)\Microsoft Visual Studio\2019\Community\VC\Tools\MSVC\14.29.30133\include\xloctime
; File C:\Program Files (x86)\Microsoft Visual Studio\2019\Community\VC\Tools\MSVC\14.29.30133\include\xlocnum
; File C:\Program Files (x86)\Microsoft Visual Studio\2019\Community\VC\Tools\MSVC\14.29.30133\include\xloctime
; File C:\Program Files (x86)\Microsoft Visual Studio\2019\Community\VC\Tools\MSVC\14.29.30133\include\xlocnum
; File C:\Program Files (x86)\Windows Kits\10\Include\10.0.19041.0\ucrt\wchar.h
; File C:\Program Files (x86)\Microsoft Visual Studio\2019\Community\VC\Tools\MSVC\14.29.30133\include\xloctime
; File C:\Program Files (x86)\Windows Kits\10\Include\10.0.19041.0\ucrt\wchar.h
; File C:\Program Files (x86)\Microsoft Visual Studio\2019\Community\VC\Tools\MSVC\14.29.30133\include\xloctime
; File C:\Program Files (x86)\Microsoft Visual Studio\2019\Community\VC\Tools\MSVC\14.29.30133\include\xlocnum
; File C:\Program Files (x86)\Microsoft Visual Studio\2019\Community\VC\Tools\MSVC\14.29.30133\include\xloctime
;	COMDAT ??$_Getvals@_W@?$time_get@_WV?$istreambuf_iterator@_WU?$char_traits@_W@std@@@std@@@std@@IEAAX_WAEBV_Locinfo@1@@Z
_TEXT	SEGMENT
$T1 = 32
this$ = 96
__formal$ = 104
_Lobj$ = 112
??$_Getvals@_W@?$time_get@_WV?$istreambuf_iterator@_WU?$char_traits@_W@std@@@std@@@std@@IEAAX_WAEBV_Locinfo@1@@Z PROC ; std::time_get<wchar_t,std::istreambuf_iterator<wchar_t,std::char_traits<wchar_t> > >::_Getvals<wchar_t>, COMDAT

; 173  :     void __CLR_OR_THIS_CALL _Getvals(_Elem2, const _Locinfo& _Lobj) { // get values

$LN14:
  00000	48 89 5c 24 08	 mov	 QWORD PTR [rsp+8], rbx
  00005	57		 push	 rdi
  00006	48 83 ec 50	 sub	 rsp, 80			; 00000050H
  0000a	48 8b f9	 mov	 rdi, rcx

; 174  :         _Cvt = _Lobj._Getcvt();

  0000d	48 8d 54 24 20	 lea	 rdx, QWORD PTR $T1[rsp]
  00012	49 8b c8	 mov	 rcx, r8
  00015	49 8b d8	 mov	 rbx, r8
  00018	ff 15 00 00 00
	00		 call	 QWORD PTR __imp_?_Getcvt@_Locinfo@std@@QEBA?AU_Cvtvec@@XZ

; 175  : 
; 176  :         if (is_same_v<_Elem2, wchar_t>) {
; 177  :             _Days = reinterpret_cast<const _Elem*>(_Maklocwcs(reinterpret_cast<const wchar_t*>(_Lobj._W_Getdays())));

  0001e	48 8b cb	 mov	 rcx, rbx
  00021	c5 fc 10 00	 vmovups ymm0, YMMWORD PTR [rax]
  00025	c5 fc 11 47 2c	 vmovups YMMWORD PTR [rdi+44], ymm0
  0002a	c5 fb 10 48 20	 vmovsd	 xmm1, QWORD PTR [rax+32]
  0002f	c5 fb 11 4f 4c	 vmovsd	 QWORD PTR [rdi+76], xmm1
  00034	8b 40 28	 mov	 eax, DWORD PTR [rax+40]
  00037	89 47 54	 mov	 DWORD PTR [rdi+84], eax
  0003a	c5 f8 77	 vzeroupper
  0003d	ff 15 00 00 00
	00		 call	 QWORD PTR __imp_?_W_Getdays@_Locinfo@std@@QEBAPEBGXZ
  00043	48 8b c8	 mov	 rcx, rax
  00046	e8 00 00 00 00	 call	 ?_Maklocwcs@std@@YAPEA_WPEB_W@Z ; std::_Maklocwcs

; 178  :             _Months =

  0004b	48 8b cb	 mov	 rcx, rbx
  0004e	48 89 47 10	 mov	 QWORD PTR [rdi+16], rax
  00052	ff 15 00 00 00
	00		 call	 QWORD PTR __imp_?_W_Getmonths@_Locinfo@std@@QEBAPEBGXZ
  00058	48 8b c8	 mov	 rcx, rax
  0005b	e8 00 00 00 00	 call	 ?_Maklocwcs@std@@YAPEA_WPEB_W@Z ; std::_Maklocwcs
; File C:\Program Files (x86)\Microsoft Visual Studio\2019\Community\VC\Tools\MSVC\14.29.30133\include\xlocnum

; 93   :     wchar_t* _Ptrdest = static_cast<wchar_t*>(_calloc_dbg(_Count, sizeof(wchar_t), _CRT_BLOCK, __FILE__, __LINE__));

  00060	ba 02 00 00 00	 mov	 edx, 2
; File C:\Program Files (x86)\Microsoft Visual Studio\2019\Community\VC\Tools\MSVC\14.29.30133\include\xloctime

; 178  :             _Months =

  00065	48 89 47 18	 mov	 QWORD PTR [rdi+24], rax
; File C:\Program Files (x86)\Microsoft Visual Studio\2019\Community\VC\Tools\MSVC\14.29.30133\include\xlocnum

; 93   :     wchar_t* _Ptrdest = static_cast<wchar_t*>(_calloc_dbg(_Count, sizeof(wchar_t), _CRT_BLOCK, __FILE__, __LINE__));

  00069	8d 4a 0b	 lea	 ecx, QWORD PTR [rdx+11]
  0006c	ff 15 00 00 00
	00		 call	 QWORD PTR __imp_calloc
  00072	48 8b c8	 mov	 rcx, rax

; 94   : 
; 95   :     if (!_Ptrdest) {

  00075	48 85 c0	 test	 rax, rax
  00078	74 33		 je	 SHORT $LN13@Getvals
; File C:\Program Files (x86)\Windows Kits\10\Include\10.0.19041.0\ucrt\wchar.h

; 236  :         return (wchar_t*)memcpy(_S1, _S2, _N*sizeof(wchar_t));

  0007a	c5 f8 10 05 00
	00 00 00	 vmovups xmm0, XMMWORD PTR ??_C@_1BK@MHIKGOKE@?$AA?3?$AAA?$AAM?$AA?3?$AAa?$AAm?$AA?3?$AAP?$AAM?$AA?3?$AAp?$AAm@
  00082	c5 fb 10 0d 10
	00 00 00	 vmovsd	 xmm1, QWORD PTR ??_C@_1BK@MHIKGOKE@?$AA?3?$AAA?$AAM?$AA?3?$AAa?$AAm?$AA?3?$AAP?$AAM?$AA?3?$AAp?$AAm@+16
; File C:\Program Files (x86)\Microsoft Visual Studio\2019\Community\VC\Tools\MSVC\14.29.30133\include\xloctime

; 186  :     }

  0008a	48 8b 5c 24 60	 mov	 rbx, QWORD PTR [rsp+96]
; File C:\Program Files (x86)\Windows Kits\10\Include\10.0.19041.0\ucrt\wchar.h

; 236  :         return (wchar_t*)memcpy(_S1, _S2, _N*sizeof(wchar_t));

  0008f	c5 f8 11 00	 vmovups XMMWORD PTR [rax], xmm0
  00093	c5 fb 11 48 10	 vmovsd	 QWORD PTR [rax+16], xmm1
  00098	0f b7 05 18 00
	00 00		 movzx	 eax, WORD PTR ??_C@_1BK@MHIKGOKE@?$AA?3?$AAA?$AAM?$AA?3?$AAa?$AAm?$AA?3?$AAP?$AAM?$AA?3?$AAp?$AAm@+24
  0009f	66 89 41 18	 mov	 WORD PTR [rcx+24], ax
; File C:\Program Files (x86)\Microsoft Visual Studio\2019\Community\VC\Tools\MSVC\14.29.30133\include\xloctime

; 180  :             _Ampm = reinterpret_cast<const _Elem*>(_Maklocwcs(L":AM:am:PM:pm"));

  000a3	48 89 4f 20	 mov	 QWORD PTR [rdi+32], rcx

; 186  :     }

  000a7	48 83 c4 50	 add	 rsp, 80			; 00000050H
  000ab	5f		 pop	 rdi
  000ac	c3		 ret	 0
$LN13@Getvals:
; File C:\Program Files (x86)\Microsoft Visual Studio\2019\Community\VC\Tools\MSVC\14.29.30133\include\xlocnum

; 96   :         _Xbad_alloc();

  000ad	e8 00 00 00 00	 call	 ?_Xbad_alloc@std@@YAXXZ	; std::_Xbad_alloc
  000b2	cc		 int	 3
$LN11@Getvals:
??$_Getvals@_W@?$time_get@_WV?$istreambuf_iterator@_WU?$char_traits@_W@std@@@std@@@std@@IEAAX_WAEBV_Locinfo@1@@Z ENDP ; std::time_get<wchar_t,std::istreambuf_iterator<wchar_t,std::char_traits<wchar_t> > >::_Getvals<wchar_t>
_TEXT	ENDS
; Function compile flags: /Ogtpy
; File C:\Program Files (x86)\Microsoft Visual Studio\2019\Community\VC\Tools\MSVC\14.29.30133\include\xloctime
; File C:\Program Files (x86)\Microsoft Visual Studio\2019\Community\VC\Tools\MSVC\14.29.30133\include\xlocnum
; File C:\Program Files (x86)\Microsoft Visual Studio\2019\Community\VC\Tools\MSVC\14.29.30133\include\xloctime
; File C:\Program Files (x86)\Microsoft Visual Studio\2019\Community\VC\Tools\MSVC\14.29.30133\include\xlocnum
; File C:\Program Files (x86)\Windows Kits\10\Include\10.0.19041.0\ucrt\wchar.h
; File C:\Program Files (x86)\Microsoft Visual Studio\2019\Community\VC\Tools\MSVC\14.29.30133\include\xloctime
; File C:\Program Files (x86)\Windows Kits\10\Include\10.0.19041.0\ucrt\wchar.h
; File C:\Program Files (x86)\Microsoft Visual Studio\2019\Community\VC\Tools\MSVC\14.29.30133\include\xloctime
; File C:\Program Files (x86)\Microsoft Visual Studio\2019\Community\VC\Tools\MSVC\14.29.30133\include\xlocnum
; File C:\Program Files (x86)\Microsoft Visual Studio\2019\Community\VC\Tools\MSVC\14.29.30133\include\xloctime
;	COMDAT ??$_Getvals@_W@?$time_get@DV?$istreambuf_iterator@DU?$char_traits@D@std@@@std@@@std@@IEAAX_WAEBV_Locinfo@1@@Z
_TEXT	SEGMENT
$T1 = 32
this$ = 96
__formal$ = 104
_Lobj$ = 112
??$_Getvals@_W@?$time_get@DV?$istreambuf_iterator@DU?$char_traits@D@std@@@std@@@std@@IEAAX_WAEBV_Locinfo@1@@Z PROC ; std::time_get<char,std::istreambuf_iterator<char,std::char_traits<char> > >::_Getvals<wchar_t>, COMDAT

; 173  :     void __CLR_OR_THIS_CALL _Getvals(_Elem2, const _Locinfo& _Lobj) { // get values

$LN20:
  00000	48 89 5c 24 08	 mov	 QWORD PTR [rsp+8], rbx
  00005	57		 push	 rdi
  00006	48 83 ec 50	 sub	 rsp, 80			; 00000050H
  0000a	48 8b f9	 mov	 rdi, rcx

; 174  :         _Cvt = _Lobj._Getcvt();

  0000d	48 8d 54 24 20	 lea	 rdx, QWORD PTR $T1[rsp]
  00012	49 8b c8	 mov	 rcx, r8
  00015	49 8b d8	 mov	 rbx, r8
  00018	ff 15 00 00 00
	00		 call	 QWORD PTR __imp_?_Getcvt@_Locinfo@std@@QEBA?AU_Cvtvec@@XZ

; 175  : 
; 176  :         if (is_same_v<_Elem2, wchar_t>) {
; 177  :             _Days = reinterpret_cast<const _Elem*>(_Maklocwcs(reinterpret_cast<const wchar_t*>(_Lobj._W_Getdays())));

  0001e	48 8b cb	 mov	 rcx, rbx
  00021	c5 fc 10 00	 vmovups ymm0, YMMWORD PTR [rax]
  00025	c5 fc 11 47 2c	 vmovups YMMWORD PTR [rdi+44], ymm0
  0002a	c5 fb 10 48 20	 vmovsd	 xmm1, QWORD PTR [rax+32]
  0002f	c5 fb 11 4f 4c	 vmovsd	 QWORD PTR [rdi+76], xmm1
  00034	8b 40 28	 mov	 eax, DWORD PTR [rax+40]
  00037	89 47 54	 mov	 DWORD PTR [rdi+84], eax
  0003a	c5 f8 77	 vzeroupper
  0003d	ff 15 00 00 00
	00		 call	 QWORD PTR __imp_?_W_Getdays@_Locinfo@std@@QEBAPEBGXZ
  00043	48 8b c8	 mov	 rcx, rax
  00046	e8 00 00 00 00	 call	 ?_Maklocwcs@std@@YAPEA_WPEB_W@Z ; std::_Maklocwcs

; 178  :             _Months =

  0004b	48 8b cb	 mov	 rcx, rbx
  0004e	48 89 47 10	 mov	 QWORD PTR [rdi+16], rax
  00052	ff 15 00 00 00
	00		 call	 QWORD PTR __imp_?_W_Getmonths@_Locinfo@std@@QEBAPEBGXZ
  00058	48 8b c8	 mov	 rcx, rax
  0005b	e8 00 00 00 00	 call	 ?_Maklocwcs@std@@YAPEA_WPEB_W@Z ; std::_Maklocwcs
; File C:\Program Files (x86)\Microsoft Visual Studio\2019\Community\VC\Tools\MSVC\14.29.30133\include\xlocnum

; 93   :     wchar_t* _Ptrdest = static_cast<wchar_t*>(_calloc_dbg(_Count, sizeof(wchar_t), _CRT_BLOCK, __FILE__, __LINE__));

  00060	ba 02 00 00 00	 mov	 edx, 2
; File C:\Program Files (x86)\Microsoft Visual Studio\2019\Community\VC\Tools\MSVC\14.29.30133\include\xloctime

; 178  :             _Months =

  00065	48 89 47 18	 mov	 QWORD PTR [rdi+24], rax
; File C:\Program Files (x86)\Microsoft Visual Studio\2019\Community\VC\Tools\MSVC\14.29.30133\include\xlocnum

; 93   :     wchar_t* _Ptrdest = static_cast<wchar_t*>(_calloc_dbg(_Count, sizeof(wchar_t), _CRT_BLOCK, __FILE__, __LINE__));

  00069	8d 4a 0b	 lea	 ecx, QWORD PTR [rdx+11]
  0006c	ff 15 00 00 00
	00		 call	 QWORD PTR __imp_calloc
  00072	48 8b c8	 mov	 rcx, rax

; 94   : 
; 95   :     if (!_Ptrdest) {

  00075	48 85 c0	 test	 rax, rax
  00078	74 33		 je	 SHORT $LN19@Getvals
; File C:\Program Files (x86)\Windows Kits\10\Include\10.0.19041.0\ucrt\wchar.h

; 236  :         return (wchar_t*)memcpy(_S1, _S2, _N*sizeof(wchar_t));

  0007a	c5 f8 10 05 00
	00 00 00	 vmovups xmm0, XMMWORD PTR ??_C@_1BK@MHIKGOKE@?$AA?3?$AAA?$AAM?$AA?3?$AAa?$AAm?$AA?3?$AAP?$AAM?$AA?3?$AAp?$AAm@
  00082	c5 fb 10 0d 10
	00 00 00	 vmovsd	 xmm1, QWORD PTR ??_C@_1BK@MHIKGOKE@?$AA?3?$AAA?$AAM?$AA?3?$AAa?$AAm?$AA?3?$AAP?$AAM?$AA?3?$AAp?$AAm@+16
; File C:\Program Files (x86)\Microsoft Visual Studio\2019\Community\VC\Tools\MSVC\14.29.30133\include\xloctime

; 186  :     }

  0008a	48 8b 5c 24 60	 mov	 rbx, QWORD PTR [rsp+96]
; File C:\Program Files (x86)\Windows Kits\10\Include\10.0.19041.0\ucrt\wchar.h

; 236  :         return (wchar_t*)memcpy(_S1, _S2, _N*sizeof(wchar_t));

  0008f	c5 f8 11 00	 vmovups XMMWORD PTR [rax], xmm0
  00093	c5 fb 11 48 10	 vmovsd	 QWORD PTR [rax+16], xmm1
  00098	0f b7 05 18 00
	00 00		 movzx	 eax, WORD PTR ??_C@_1BK@MHIKGOKE@?$AA?3?$AAA?$AAM?$AA?3?$AAa?$AAm?$AA?3?$AAP?$AAM?$AA?3?$AAp?$AAm@+24
  0009f	66 89 41 18	 mov	 WORD PTR [rcx+24], ax
; File C:\Program Files (x86)\Microsoft Visual Studio\2019\Community\VC\Tools\MSVC\14.29.30133\include\xloctime

; 180  :             _Ampm = reinterpret_cast<const _Elem*>(_Maklocwcs(L":AM:am:PM:pm"));

  000a3	48 89 4f 20	 mov	 QWORD PTR [rdi+32], rcx

; 186  :     }

  000a7	48 83 c4 50	 add	 rsp, 80			; 00000050H
  000ab	5f		 pop	 rdi
  000ac	c3		 ret	 0
$LN19@Getvals:
; File C:\Program Files (x86)\Microsoft Visual Studio\2019\Community\VC\Tools\MSVC\14.29.30133\include\xlocnum

; 96   :         _Xbad_alloc();

  000ad	e8 00 00 00 00	 call	 ?_Xbad_alloc@std@@YAXXZ	; std::_Xbad_alloc
  000b2	cc		 int	 3
$LN17@Getvals:
??$_Getvals@_W@?$time_get@DV?$istreambuf_iterator@DU?$char_traits@D@std@@@std@@@std@@IEAAX_WAEBV_Locinfo@1@@Z ENDP ; std::time_get<char,std::istreambuf_iterator<char,std::char_traits<char> > >::_Getvals<wchar_t>
_TEXT	ENDS
; Function compile flags: /Ogtpy
; File C:\Program Files (x86)\Microsoft Visual Studio\2019\Community\VC\Tools\MSVC\14.29.30133\include\ios
; File C:\Program Files (x86)\Microsoft Visual Studio\2019\Community\VC\Tools\MSVC\14.29.30133\include\xiosbase
; File C:\Program Files (x86)\Microsoft Visual Studio\2019\Community\VC\Tools\MSVC\14.29.30133\include\ios
; File C:\Program Files (x86)\Microsoft Visual Studio\2019\Community\VC\Tools\MSVC\14.29.30133\include\xiosbase
; File C:\Program Files (x86)\Microsoft Visual Studio\2019\Community\VC\Tools\MSVC\14.29.30133\include\ios
;	COMDAT ?fixed@std@@YAAEAVios_base@1@AEAV21@@Z
_TEXT	SEGMENT
_Iosbase$ = 8
?fixed@std@@YAAEAVios_base@1@AEAV21@@Z PROC		; std::fixed, COMDAT
; File C:\Program Files (x86)\Microsoft Visual Studio\2019\Community\VC\Tools\MSVC\14.29.30133\include\xiosbase

; 344  :         _Fmtfl                                = (_Oldfmtflags & ~_Mask) | (_Newfmtflags & _Mask & _Fmtmask);

  00000	81 61 18 ff ef
	ff ff		 and	 DWORD PTR [rcx+24], -4097 ; ffffffffffffefffH
; File C:\Program Files (x86)\Microsoft Visual Studio\2019\Community\VC\Tools\MSVC\14.29.30133\include\ios

; 203  :     return _Iosbase;

  00007	48 8b c1	 mov	 rax, rcx
; File C:\Program Files (x86)\Microsoft Visual Studio\2019\Community\VC\Tools\MSVC\14.29.30133\include\xiosbase

; 344  :         _Fmtfl                                = (_Oldfmtflags & ~_Mask) | (_Newfmtflags & _Mask & _Fmtmask);

  0000a	81 49 18 00 20
	00 00		 or	 DWORD PTR [rcx+24], 8192 ; 00002000H
; File C:\Program Files (x86)\Microsoft Visual Studio\2019\Community\VC\Tools\MSVC\14.29.30133\include\ios

; 204  : }

  00011	c3		 ret	 0
?fixed@std@@YAAEAVios_base@1@AEAV21@@Z ENDP		; std::fixed
_TEXT	ENDS
; Function compile flags: /Ogtpy
; File C:\Program Files (x86)\Microsoft Visual Studio\2019\Community\VC\Tools\MSVC\14.29.30133\include\xlocale
;	COMDAT ??$_Maklocstr@D@std@@YAPEADPEBDPEADAEBU_Cvtvec@@@Z
_TEXT	SEGMENT
_Ptr$ = 48
__formal$ = 56
__formal$ = 64
??$_Maklocstr@D@std@@YAPEADPEBDPEADAEBU_Cvtvec@@@Z PROC	; std::_Maklocstr<char>, COMDAT

; 522  : _Elem* __CRTDECL _Maklocstr(const char* _Ptr, _Elem*, const _Locinfo::_Cvtvec&) {

$LN15:
  00000	48 89 5c 24 08	 mov	 QWORD PTR [rsp+8], rbx
  00005	48 89 74 24 10	 mov	 QWORD PTR [rsp+16], rsi
  0000a	57		 push	 rdi
  0000b	48 83 ec 20	 sub	 rsp, 32			; 00000020H
  0000f	48 8b d9	 mov	 rbx, rcx

; 523  :     // convert C string to _Elem sequence using _Cvtvec
; 524  :     size_t _Count = _CSTD strlen(_Ptr) + 1;

  00012	48 c7 c0 ff ff
	ff ff		 mov	 rax, -1
  00019	0f 1f 80 00 00
	00 00		 npad	 7
$LL11@Maklocstr:
  00020	80 7c 01 01 00	 cmp	 BYTE PTR [rcx+rax+1], 0
  00025	48 8d 40 01	 lea	 rax, QWORD PTR [rax+1]
  00029	75 f5		 jne	 SHORT $LL11@Maklocstr
  0002b	48 8d 70 01	 lea	 rsi, QWORD PTR [rax+1]

; 525  : 
; 526  :     _Elem* _Ptrdest = static_cast<_Elem*>(_calloc_dbg(_Count, sizeof(_Elem), _CRT_BLOCK, __FILE__, __LINE__));

  0002f	ba 01 00 00 00	 mov	 edx, 1
  00034	48 8b ce	 mov	 rcx, rsi
  00037	ff 15 00 00 00
	00		 call	 QWORD PTR __imp_calloc
  0003d	48 8b f8	 mov	 rdi, rax

; 527  : 
; 528  :     if (!_Ptrdest) {

  00040	48 85 c0	 test	 rax, rax
  00043	74 26		 je	 SHORT $LN14@Maklocstr

; 530  :     }
; 531  : 
; 532  :     for (_Elem* _Ptrnext = _Ptrdest; 0 < _Count; --_Count, ++_Ptrnext, ++_Ptr) {

  00045	48 85 f6	 test	 rsi, rsi
  00048	74 0e		 je	 SHORT $LN4@Maklocstr
  0004a	4c 8b c6	 mov	 r8, rsi
  0004d	48 8b d3	 mov	 rdx, rbx
  00050	48 8b c8	 mov	 rcx, rax
  00053	e8 00 00 00 00	 call	 memcpy
$LN4@Maklocstr:

; 533  :         *_Ptrnext = static_cast<_Elem>(static_cast<unsigned char>(*_Ptr));
; 534  :     }
; 535  : 
; 536  :     return _Ptrdest;
; 537  : }

  00058	48 8b 5c 24 30	 mov	 rbx, QWORD PTR [rsp+48]
  0005d	48 8b c7	 mov	 rax, rdi
  00060	48 8b 74 24 38	 mov	 rsi, QWORD PTR [rsp+56]
  00065	48 83 c4 20	 add	 rsp, 32			; 00000020H
  00069	5f		 pop	 rdi
  0006a	c3		 ret	 0
$LN14@Maklocstr:

; 529  :         _Xbad_alloc();

  0006b	e8 00 00 00 00	 call	 ?_Xbad_alloc@std@@YAXXZ	; std::_Xbad_alloc
  00070	cc		 int	 3
$LN12@Maklocstr:
??$_Maklocstr@D@std@@YAPEADPEBDPEADAEBU_Cvtvec@@@Z ENDP	; std::_Maklocstr<char>
_TEXT	ENDS
; Function compile flags: /Ogtpy
; File C:\Program Files (x86)\Microsoft Visual Studio\2019\Community\VC\Tools\MSVC\14.29.30133\include\xlocnum
; File C:\Program Files (x86)\Windows Kits\10\Include\10.0.19041.0\ucrt\wchar.h
; File C:\Program Files (x86)\Microsoft Visual Studio\2019\Community\VC\Tools\MSVC\14.29.30133\include\xlocnum
;	COMDAT ?_Maklocwcs@std@@YAPEA_WPEB_W@Z
_TEXT	SEGMENT
_Ptr$ = 48
?_Maklocwcs@std@@YAPEA_WPEB_W@Z PROC			; std::_Maklocwcs, COMDAT

; 90   : inline wchar_t* _Maklocwcs(const wchar_t* _Ptr) { // copy NTWCS to allocated storage

$LN10:
  00000	48 89 5c 24 08	 mov	 QWORD PTR [rsp+8], rbx
  00005	48 89 74 24 10	 mov	 QWORD PTR [rsp+16], rsi
  0000a	57		 push	 rdi
  0000b	48 83 ec 20	 sub	 rsp, 32			; 00000020H
  0000f	48 8b f9	 mov	 rdi, rcx

; 91   :     const size_t _Count = _CSTD wcslen(_Ptr) + 1;

  00012	48 c7 c3 ff ff
	ff ff		 mov	 rbx, -1
  00019	0f 1f 80 00 00
	00 00		 npad	 7
$LL6@Maklocwcs:
  00020	48 ff c3	 inc	 rbx
  00023	66 83 3c 59 00	 cmp	 WORD PTR [rcx+rbx*2], 0
  00028	75 f6		 jne	 SHORT $LL6@Maklocwcs
  0002a	48 ff c3	 inc	 rbx

; 92   : 
; 93   :     wchar_t* _Ptrdest = static_cast<wchar_t*>(_calloc_dbg(_Count, sizeof(wchar_t), _CRT_BLOCK, __FILE__, __LINE__));

  0002d	ba 02 00 00 00	 mov	 edx, 2
  00032	48 8b cb	 mov	 rcx, rbx
  00035	ff 15 00 00 00
	00		 call	 QWORD PTR __imp_calloc
  0003b	48 8b f0	 mov	 rsi, rax

; 94   : 
; 95   :     if (!_Ptrdest) {

  0003e	48 85 c0	 test	 rax, rax
  00041	74 22		 je	 SHORT $LN9@Maklocwcs
; File C:\Program Files (x86)\Windows Kits\10\Include\10.0.19041.0\ucrt\wchar.h

; 236  :         return (wchar_t*)memcpy(_S1, _S2, _N*sizeof(wchar_t));

  00043	4c 8d 04 1b	 lea	 r8, QWORD PTR [rbx+rbx]
  00047	48 8b d7	 mov	 rdx, rdi
  0004a	48 8b c8	 mov	 rcx, rax
  0004d	e8 00 00 00 00	 call	 memcpy
; File C:\Program Files (x86)\Microsoft Visual Studio\2019\Community\VC\Tools\MSVC\14.29.30133\include\xlocnum

; 101  : }

  00052	48 8b 5c 24 30	 mov	 rbx, QWORD PTR [rsp+48]
  00057	48 8b c6	 mov	 rax, rsi
  0005a	48 8b 74 24 38	 mov	 rsi, QWORD PTR [rsp+56]
  0005f	48 83 c4 20	 add	 rsp, 32			; 00000020H
  00063	5f		 pop	 rdi
  00064	c3		 ret	 0
$LN9@Maklocwcs:

; 96   :         _Xbad_alloc();

  00065	e8 00 00 00 00	 call	 ?_Xbad_alloc@std@@YAXXZ	; std::_Xbad_alloc
  0006a	cc		 int	 3
$LN7@Maklocwcs:
?_Maklocwcs@std@@YAPEA_WPEB_W@Z ENDP			; std::_Maklocwcs
_TEXT	ENDS
END
