; Listing generated by Microsoft (R) Optimizing Compiler Version 19.29.30143.0 

include listing.inc

INCLUDELIB MSVCRTD
INCLUDELIB OLDNAMES

msvcjmc	SEGMENT
__97D3638F_vcruntime_new@h DB 01H
__741AE07E_corecrt_math@h DB 01H
__B49664B7_stdlib@h DB 01H
__244AF085_cstdlib DB 01H
__60BC708E_cmath DB 01H
__A2143F22_corecrt_stdio_config@h DB 01H
__829E1958_corecrt_wstdio@h DB 01H
__6DFAE8B8_stdio@h DB 01H
__1FEB9909_corecrt_memcpy_s@h DB 01H
__A751F051_corecrt_memory@h DB 01H
__9200769A_corecrt_wstring@h DB 01H
__32E5F013_string@h DB 01H
__C6E16F6F_corecrt_wconio@h DB 01H
__6D390390_corecrt_wio@h DB 01H
__1157D6BA_corecrt_wtime@h DB 01H
__1DC1E279_stat@h DB 01H
__93DC0B45_wchar@h DB 01H
__589FA321_type_traits DB 01H
__12269DE6_xutility DB 01H
__20BB4341_malloc@h DB 01H
__B0A13A33_vcruntime_exception@h DB 01H
__FF458F76_exception DB 01H
__7FE5F402_limits DB 01H
__79D216CD_xmemory DB 01H
__0D019051_xstring DB 01H
__760BB52B_stdexcept DB 01H
__A4685E82_xcall_once@h DB 01H
__A0B61CF9_time@h DB 01H
__DDB379A0_xthreads@h DB 01H
__14D0A8C0_atomic DB 01H
__1B354CA2_system_error DB 01H
__65ADBEC9_vcruntime_typeinfo@h DB 01H
__62F96EFF_typeinfo DB 01H
__C34BF88C_memory DB 01H
__EF0EAF83_xfacet DB 01H
__B2D2BA86_ctype@h DB 01H
__7D708D37_xlocinfo DB 01H
__D23FE460_xlocale DB 01H
__4495FA24_xiosbase DB 01H
__4CB88277_xlocnum DB 01H
__845859A3_ios DB 01H
__67DA974F_xlocmon DB 01H
__D96D2425_xloctime DB 01H
__0C0FE920_ratio DB 01H
__1B08F288_chrono DB 01H
__3F19CEC4_Ch01@cpp DB 01H
__A2FF0B9E_istream DB 01H
__C12F3EA4_ostream DB 01H
__74AB0D97_streambuf DB 01H
__038A2AA6_iterator DB 01H
__B30C2184_iosfwd DB 01H
__1347750E_utility DB 01H
__E458E21C_xstddef DB 01H
__5E3DCDCC_iomanip DB 01H
__F54903A0_xatomic@h DB 01H
msvcjmc	ENDS
PUBLIC	?__empty_global_delete@@YAXPEAX@Z		; __empty_global_delete
PUBLIC	?__empty_global_delete@@YAXPEAX_K@Z		; __empty_global_delete
PUBLIC	wmemcpy
PUBLIC	?length@?$_Narrow_char_traits@DH@std@@SA_KQEBD@Z ; std::_Narrow_char_traits<char,int>::length
PUBLIC	?eq_int_type@?$_Narrow_char_traits@DH@std@@SA_NAEBH0@Z ; std::_Narrow_char_traits<char,int>::eq_int_type
PUBLIC	?eof@?$_Narrow_char_traits@DH@std@@SAHXZ	; std::_Narrow_char_traits<char,int>::eof
PUBLIC	??$_Maklocstr@_W@std@@YAPEA_WPEBDPEA_WAEBU_Cvtvec@@@Z ; std::_Maklocstr<wchar_t>
PUBLIC	?_Maklocwcs@std@@YAPEA_WPEB_W@Z			; std::_Maklocwcs
PUBLIC	??$_Maklocstr@D@std@@YAPEADPEBDPEADAEBU_Cvtvec@@@Z ; std::_Maklocstr<char>
PUBLIC	?fixed@std@@YAAEAVios_base@1@AEAV21@@Z		; std::fixed
PUBLIC	??$_Getvals@_W@?$time_get@DV?$istreambuf_iterator@DU?$char_traits@D@std@@@std@@@std@@IEAAX_WAEBV_Locinfo@1@@Z ; std::time_get<char,std::istreambuf_iterator<char,std::char_traits<char> > >::_Getvals<wchar_t>
PUBLIC	??$_Getvals@_W@?$time_get@_WV?$istreambuf_iterator@_WU?$char_traits@_W@std@@@std@@@std@@IEAAX_WAEBV_Locinfo@1@@Z ; std::time_get<wchar_t,std::istreambuf_iterator<wchar_t,std::char_traits<wchar_t> > >::_Getvals<wchar_t>
PUBLIC	?CalcZ_Cpp@@YAXPEAMPEBM1_K@Z			; CalcZ_Cpp
PUBLIC	?CalcZ_Iavx@@YAXPEAMPEBM1_K@Z			; CalcZ_Iavx
PUBLIC	?now@steady_clock@chrono@std@@SA?AV?$time_point@Usteady_clock@chrono@std@@V?$duration@_JU?$ratio@$00$0DLJKMKAA@@std@@@23@@23@XZ ; std::chrono::steady_clock::now
PUBLIC	?count@?$duration@_JU?$ratio@$00$0DLJKMKAA@@std@@@chrono@std@@QEBA_JXZ ; std::chrono::duration<__int64,std::ratio<1,1000000000> >::count
PUBLIC	??0?$time_point@Usteady_clock@chrono@std@@V?$duration@_JU?$ratio@$00$0DLJKMKAA@@std@@@23@@chrono@std@@QEAA@AEBV?$duration@_JU?$ratio@$00$0DLJKMKAA@@std@@@12@@Z ; std::chrono::time_point<std::chrono::steady_clock,std::chrono::duration<__int64,std::ratio<1,1000000000> > >::time_point<std::chrono::steady_clock,std::chrono::duration<__int64,std::ratio<1,1000000000> > >
PUBLIC	?time_since_epoch@?$time_point@Usteady_clock@chrono@std@@V?$duration@_JU?$ratio@$00$0DLJKMKAA@@std@@@23@@chrono@std@@QEBA?AV?$duration@_JU?$ratio@$00$0DLJKMKAA@@std@@@23@XZ ; std::chrono::time_point<std::chrono::steady_clock,std::chrono::duration<__int64,std::ratio<1,1000000000> > >::time_since_epoch
PUBLIC	??$?0_J$0A@@?$duration@_JU?$ratio@$00$0DLJKMKAA@@std@@@chrono@std@@QEAA@AEB_J@Z ; std::chrono::duration<__int64,std::ratio<1,1000000000> >::duration<__int64,std::ratio<1,1000000000> ><__int64,0>
PUBLIC	main
PUBLIC	??$?GUsteady_clock@chrono@std@@V?$duration@_JU?$ratio@$00$0DLJKMKAA@@std@@@12@V312@@chrono@std@@YA?AV?$duration@_JU?$ratio@$00$0DLJKMKAA@@std@@@01@AEBV?$time_point@Usteady_clock@chrono@std@@V?$duration@_JU?$ratio@$00$0DLJKMKAA@@std@@@23@@01@0@Z ; std::chrono::operator-<std::chrono::steady_clock,std::chrono::duration<__int64,std::ratio<1,1000000000> >,std::chrono::duration<__int64,std::ratio<1,1000000000> > >
PUBLIC	??$duration_cast@V?$duration@_JU?$ratio@$00$0DLJKMKAA@@std@@@chrono@std@@_JU?$ratio@$00$0DLJKMKAA@@3@$0A@@chrono@std@@YA?AV?$duration@_JU?$ratio@$00$0DLJKMKAA@@std@@@01@AEBV201@@Z ; std::chrono::duration_cast<std::chrono::duration<__int64,std::ratio<1,1000000000> >,__int64,std::ratio<1,1000000000>,0>
PUBLIC	??$?6U?$char_traits@D@std@@@std@@YAAEAV?$basic_ostream@DU?$char_traits@D@std@@@0@AEAV10@PEBD@Z ; std::operator<<<std::char_traits<char> >
PUBLIC	??$?6DU?$char_traits@D@std@@_J@std@@YAAEAV?$basic_ostream@DU?$char_traits@D@std@@@0@AEAV10@AEBU?$_Smanip@_J@0@@Z ; std::operator<<<char,std::char_traits<char>,__int64>
PUBLIC	??$endl@DU?$char_traits@D@std@@@std@@YAAEAV?$basic_ostream@DU?$char_traits@D@std@@@0@AEAV10@@Z ; std::endl<char,std::char_traits<char> >
PUBLIC	??0_Sentry_base@?$basic_ostream@DU?$char_traits@D@std@@@std@@QEAA@AEAV12@@Z ; std::basic_ostream<char,std::char_traits<char> >::_Sentry_base::_Sentry_base
PUBLIC	??1_Sentry_base@?$basic_ostream@DU?$char_traits@D@std@@@std@@QEAA@XZ ; std::basic_ostream<char,std::char_traits<char> >::_Sentry_base::~_Sentry_base
PUBLIC	??0sentry@?$basic_ostream@DU?$char_traits@D@std@@@std@@QEAA@AEAV12@@Z ; std::basic_ostream<char,std::char_traits<char> >::sentry::sentry
PUBLIC	??1sentry@?$basic_ostream@DU?$char_traits@D@std@@@std@@QEAA@XZ ; std::basic_ostream<char,std::char_traits<char> >::sentry::~sentry
PUBLIC	??Bsentry@?$basic_ostream@DU?$char_traits@D@std@@@std@@QEBA_NXZ ; std::basic_ostream<char,std::char_traits<char> >::sentry::operator bool
PUBLIC	??$?G_JU?$ratio@$00$0DLJKMKAA@@std@@_JU01@@chrono@std@@YA?AV?$duration@_JU?$ratio@$00$0DLJKMKAA@@std@@@01@AEBV201@0@Z ; std::chrono::operator-<__int64,std::ratio<1,1000000000>,__int64,std::ratio<1,1000000000> >
PUBLIC	__JustMyCode_Default
PUBLIC	??_C@_0GI@GFIAKDGM@C?3?2Program?5Files?5?$CIx86?$CJ?2Microsof@ ; `string'
PUBLIC	?__LINE__Var@?0??_Maklocwcs@std@@YAPEA_WPEB_W@Z@4JA ; `std::_Maklocwcs'::`1'::__LINE__Var
PUBLIC	??_C@_0GI@OGMNKBMN@C?3?2Program?5Files?5?$CIx86?$CJ?2Microsof@ ; `string'
PUBLIC	??_C@_04IBFKBJDL@?5sec@				; `string'
PUBLIC	??_C@_0CB@KPCJIIKF@Time?5taken?5by?5Iavx?5program?5is?5?3@ ; `string'
PUBLIC	??_C@_0CB@NOJKNLMI@Time?5taken?5by?5Cpp?5program?5is?5?5?3@ ; `string'
PUBLIC	??_C@_0CB@KGIIJFCA@Time?5taken?5by?5Aavx?5program?5is?5?3@ ; `string'
PUBLIC	??_C@_0N@LPFKKEBD@?3AM?3am?3PM?3pm@		; `string'
PUBLIC	??_C@_1BK@MHIKGOKE@?$AA?3?$AAA?$AAM?$AA?3?$AAa?$AAm?$AA?3?$AAP?$AAM?$AA?3?$AAp?$AAm@ ; `string'
PUBLIC	__real@3e112e0be826d695
EXTRN	??_U@YAPEAX_K@Z:PROC				; operator new[]
EXTRN	__imp__calloc_dbg:PROC
EXTRN	memcpy:PROC
EXTRN	__imp_wcslen:PROC
EXTRN	strlen:PROC
EXTRN	?_Xbad_alloc@std@@YAXXZ:PROC			; std::_Xbad_alloc
EXTRN	?uncaught_exception@std@@YA_NXZ:PROC		; std::uncaught_exception
EXTRN	_Query_perf_counter:PROC
EXTRN	_Query_perf_frequency:PROC
EXTRN	_Mbrtowc:PROC
EXTRN	__imp_?_Getcvt@_Locinfo@std@@QEBA?AU_Cvtvec@@XZ:PROC
EXTRN	__imp_?_Getdays@_Locinfo@std@@QEBAPEBDXZ:PROC
EXTRN	__imp_?_Getmonths@_Locinfo@std@@QEBAPEBDXZ:PROC
EXTRN	__imp_?_W_Getdays@_Locinfo@std@@QEBAPEBGXZ:PROC
EXTRN	__imp_?_W_Getmonths@_Locinfo@std@@QEBAPEBGXZ:PROC
EXTRN	__imp_?good@ios_base@std@@QEBA_NXZ:PROC
EXTRN	__imp_?flags@ios_base@std@@QEBAHXZ:PROC
EXTRN	__imp_?setf@ios_base@std@@QEAAHHH@Z:PROC
EXTRN	__imp_?width@ios_base@std@@QEBA_JXZ:PROC
EXTRN	__imp_?width@ios_base@std@@QEAA_J_J@Z:PROC
EXTRN	__imp_?sputc@?$basic_streambuf@DU?$char_traits@D@std@@@std@@QEAAHD@Z:PROC
EXTRN	__imp_?sputn@?$basic_streambuf@DU?$char_traits@D@std@@@std@@QEAA_JPEBD_J@Z:PROC
EXTRN	__imp_?setstate@?$basic_ios@DU?$char_traits@D@std@@@std@@QEAAXH_N@Z:PROC
EXTRN	__imp_?tie@?$basic_ios@DU?$char_traits@D@std@@@std@@QEBAPEAV?$basic_ostream@DU?$char_traits@D@std@@@2@XZ:PROC
EXTRN	__imp_?rdbuf@?$basic_ios@DU?$char_traits@D@std@@@std@@QEBAPEAV?$basic_streambuf@DU?$char_traits@D@std@@@2@XZ:PROC
EXTRN	__imp_?fill@?$basic_ios@DU?$char_traits@D@std@@@std@@QEBADXZ:PROC
EXTRN	__imp_?widen@?$basic_ios@DU?$char_traits@D@std@@@std@@QEBADD@Z:PROC
EXTRN	__imp_?_Osfx@?$basic_ostream@DU?$char_traits@D@std@@@std@@QEAAXXZ:PROC
EXTRN	__imp_??6?$basic_ostream@DU?$char_traits@D@std@@@std@@QEAAAEAV01@P6AAEAV01@AEAV01@@Z@Z:PROC
EXTRN	__imp_??6?$basic_ostream@DU?$char_traits@D@std@@@std@@QEAAAEAV01@P6AAEAVios_base@1@AEAV21@@Z@Z:PROC
EXTRN	__imp_??6?$basic_ostream@DU?$char_traits@D@std@@@std@@QEAAAEAV01@N@Z:PROC
EXTRN	__imp_?put@?$basic_ostream@DU?$char_traits@D@std@@@std@@QEAAAEAV12@D@Z:PROC
EXTRN	__imp_?flush@?$basic_ostream@DU?$char_traits@D@std@@@std@@QEAAAEAV12@XZ:PROC
EXTRN	?setprecision@std@@YA?AU?$_Smanip@_J@1@_J@Z:PROC ; std::setprecision
EXTRN	CalcZ_Aavx:PROC
EXTRN	_RTC_CheckStackVars:PROC
EXTRN	_RTC_InitBase:PROC
EXTRN	_RTC_Shutdown:PROC
EXTRN	__CheckForDebuggerJustMyCode:PROC
EXTRN	__CxxFrameHandler4:PROC
EXTRN	__GSHandlerCheck:PROC
EXTRN	__GSHandlerCheck_EH4:PROC
EXTRN	__security_check_cookie:PROC
EXTRN	__imp_?cout@std@@3V?$basic_ostream@DU?$char_traits@D@std@@@1@A:BYTE
EXTRN	__security_cookie:QWORD
EXTRN	_fltused:DWORD
;	COMDAT pdata
pdata	SEGMENT
$pdata$?__empty_global_delete@@YAXPEAX@Z DD imagerel $LN3
	DD	imagerel $LN3+41
	DD	imagerel $unwind$?__empty_global_delete@@YAXPEAX@Z
pdata	ENDS
;	COMDAT pdata
pdata	SEGMENT
$pdata$?__empty_global_delete@@YAXPEAX_K@Z DD imagerel $LN3
	DD	imagerel $LN3+46
	DD	imagerel $unwind$?__empty_global_delete@@YAXPEAX_K@Z
pdata	ENDS
;	COMDAT pdata
pdata	SEGMENT
$pdata$wmemcpy DD imagerel $LN3
	DD	imagerel $LN3+83
	DD	imagerel $unwind$wmemcpy
pdata	ENDS
;	COMDAT pdata
pdata	SEGMENT
$pdata$?length@?$_Narrow_char_traits@DH@std@@SA_KQEBD@Z DD imagerel $LN3
	DD	imagerel $LN3+53
	DD	imagerel $unwind$?length@?$_Narrow_char_traits@DH@std@@SA_KQEBD@Z
pdata	ENDS
;	COMDAT pdata
pdata	SEGMENT
$pdata$?eq_int_type@?$_Narrow_char_traits@DH@std@@SA_NAEBH0@Z DD imagerel $LN5
	DD	imagerel $LN5+95
	DD	imagerel $unwind$?eq_int_type@?$_Narrow_char_traits@DH@std@@SA_NAEBH0@Z
pdata	ENDS
;	COMDAT pdata
pdata	SEGMENT
$pdata$?eof@?$_Narrow_char_traits@DH@std@@SAHXZ DD imagerel $LN3
	DD	imagerel $LN3+42
	DD	imagerel $unwind$?eof@?$_Narrow_char_traits@DH@std@@SAHXZ
pdata	ENDS
;	COMDAT pdata
pdata	SEGMENT
$pdata$??$_Maklocstr@_W@std@@YAPEA_WPEBDPEA_WAEBU_Cvtvec@@@Z DD imagerel $LN12
	DD	imagerel $LN12+586
	DD	imagerel $unwind$??$_Maklocstr@_W@std@@YAPEA_WPEBDPEA_WAEBU_Cvtvec@@@Z
pdata	ENDS
;	COMDAT pdata
pdata	SEGMENT
$pdata$?_Maklocwcs@std@@YAPEA_WPEB_W@Z DD imagerel $LN4
	DD	imagerel $LN4+142
	DD	imagerel $unwind$?_Maklocwcs@std@@YAPEA_WPEB_W@Z
pdata	ENDS
;	COMDAT pdata
pdata	SEGMENT
$pdata$??$_Maklocstr@D@std@@YAPEADPEBDPEADAEBU_Cvtvec@@@Z DD imagerel $LN7
	DD	imagerel $LN7+200
	DD	imagerel $unwind$??$_Maklocstr@D@std@@YAPEADPEBDPEADAEBU_Cvtvec@@@Z
pdata	ENDS
;	COMDAT pdata
pdata	SEGMENT
$pdata$?fixed@std@@YAAEAVios_base@1@AEAV21@@Z DD imagerel $LN3
	DD	imagerel $LN3+72
	DD	imagerel $unwind$?fixed@std@@YAAEAVios_base@1@AEAV21@@Z
pdata	ENDS
;	COMDAT pdata
pdata	SEGMENT
$pdata$??$_Getvals@_W@?$time_get@DV?$istreambuf_iterator@DU?$char_traits@D@std@@@std@@@std@@IEAAX_WAEBV_Locinfo@1@@Z DD imagerel $LN5
	DD	imagerel $LN5+356
	DD	imagerel $unwind$??$_Getvals@_W@?$time_get@DV?$istreambuf_iterator@DU?$char_traits@D@std@@@std@@@std@@IEAAX_WAEBV_Locinfo@1@@Z
pdata	ENDS
;	COMDAT pdata
pdata	SEGMENT
$pdata$??$_Getvals@_W@?$time_get@_WV?$istreambuf_iterator@_WU?$char_traits@_W@std@@@std@@@std@@IEAAX_WAEBV_Locinfo@1@@Z DD imagerel $LN5
	DD	imagerel $LN5+356
	DD	imagerel $unwind$??$_Getvals@_W@?$time_get@_WV?$istreambuf_iterator@_WU?$char_traits@_W@std@@@std@@@std@@IEAAX_WAEBV_Locinfo@1@@Z
pdata	ENDS
;	COMDAT pdata
pdata	SEGMENT
$pdata$?CalcZ_Cpp@@YAXPEAMPEBM1_K@Z DD imagerel $LN6
	DD	imagerel $LN6+141
	DD	imagerel $unwind$?CalcZ_Cpp@@YAXPEAMPEBM1_K@Z
pdata	ENDS
;	COMDAT pdata
pdata	SEGMENT
$pdata$?CalcZ_Iavx@@YAXPEAMPEBM1_K@Z DD imagerel $LN9
	DD	imagerel $LN9+355
	DD	imagerel $unwind$?CalcZ_Iavx@@YAXPEAMPEBM1_K@Z
pdata	ENDS
;	COMDAT pdata
pdata	SEGMENT
$pdata$?now@steady_clock@chrono@std@@SA?AV?$time_point@Usteady_clock@chrono@std@@V?$duration@_JU?$ratio@$00$0DLJKMKAA@@std@@@23@@23@XZ DD imagerel $LN3
	DD	imagerel $LN3+172
	DD	imagerel $unwind$?now@steady_clock@chrono@std@@SA?AV?$time_point@Usteady_clock@chrono@std@@V?$duration@_JU?$ratio@$00$0DLJKMKAA@@std@@@23@@23@XZ
pdata	ENDS
;	COMDAT pdata
pdata	SEGMENT
$pdata$?count@?$duration@_JU?$ratio@$00$0DLJKMKAA@@std@@@chrono@std@@QEBA_JXZ DD imagerel $LN3
	DD	imagerel $LN3+51
	DD	imagerel $unwind$?count@?$duration@_JU?$ratio@$00$0DLJKMKAA@@std@@@chrono@std@@QEBA_JXZ
pdata	ENDS
;	COMDAT pdata
pdata	SEGMENT
$pdata$??0?$time_point@Usteady_clock@chrono@std@@V?$duration@_JU?$ratio@$00$0DLJKMKAA@@std@@@23@@chrono@std@@QEAA@AEBV?$duration@_JU?$ratio@$00$0DLJKMKAA@@std@@@12@@Z DD imagerel $LN3
	DD	imagerel $LN3+73
	DD	imagerel $unwind$??0?$time_point@Usteady_clock@chrono@std@@V?$duration@_JU?$ratio@$00$0DLJKMKAA@@std@@@23@@chrono@std@@QEAA@AEBV?$duration@_JU?$ratio@$00$0DLJKMKAA@@std@@@12@@Z
pdata	ENDS
;	COMDAT pdata
pdata	SEGMENT
$pdata$?time_since_epoch@?$time_point@Usteady_clock@chrono@std@@V?$duration@_JU?$ratio@$00$0DLJKMKAA@@std@@@23@@chrono@std@@QEBA?AV?$duration@_JU?$ratio@$00$0DLJKMKAA@@std@@@23@XZ DD imagerel $LN3
	DD	imagerel $LN3+73
	DD	imagerel $unwind$?time_since_epoch@?$time_point@Usteady_clock@chrono@std@@V?$duration@_JU?$ratio@$00$0DLJKMKAA@@std@@@23@@chrono@std@@QEBA?AV?$duration@_JU?$ratio@$00$0DLJKMKAA@@std@@@23@XZ
pdata	ENDS
;	COMDAT pdata
pdata	SEGMENT
$pdata$??$?0_J$0A@@?$duration@_JU?$ratio@$00$0DLJKMKAA@@std@@@chrono@std@@QEAA@AEB_J@Z DD imagerel $LN3
	DD	imagerel $LN3+73
	DD	imagerel $unwind$??$?0_J$0A@@?$duration@_JU?$ratio@$00$0DLJKMKAA@@std@@@chrono@std@@QEAA@AEB_J@Z
pdata	ENDS
;	COMDAT pdata
pdata	SEGMENT
$pdata$main DD	imagerel $LN6
	DD	imagerel $LN6+1092
	DD	imagerel $unwind$main
pdata	ENDS
;	COMDAT pdata
pdata	SEGMENT
$pdata$??$?GUsteady_clock@chrono@std@@V?$duration@_JU?$ratio@$00$0DLJKMKAA@@std@@@12@V312@@chrono@std@@YA?AV?$duration@_JU?$ratio@$00$0DLJKMKAA@@std@@@01@AEBV?$time_point@Usteady_clock@chrono@std@@V?$duration@_JU?$ratio@$00$0DLJKMKAA@@std@@@23@@01@0@Z DD imagerel $LN3
	DD	imagerel $LN3+128
	DD	imagerel $unwind$??$?GUsteady_clock@chrono@std@@V?$duration@_JU?$ratio@$00$0DLJKMKAA@@std@@@12@V312@@chrono@std@@YA?AV?$duration@_JU?$ratio@$00$0DLJKMKAA@@std@@@01@AEBV?$time_point@Usteady_clock@chrono@std@@V?$duration@_JU?$ratio@$00$0DLJKMKAA@@std@@@23@@01@0@Z
pdata	ENDS
;	COMDAT pdata
pdata	SEGMENT
$pdata$??$duration_cast@V?$duration@_JU?$ratio@$00$0DLJKMKAA@@std@@@chrono@std@@_JU?$ratio@$00$0DLJKMKAA@@3@$0A@@chrono@std@@YA?AV?$duration@_JU?$ratio@$00$0DLJKMKAA@@std@@@01@AEBV201@@Z DD imagerel $LN9
	DD	imagerel $LN9+270
	DD	imagerel $unwind$??$duration_cast@V?$duration@_JU?$ratio@$00$0DLJKMKAA@@std@@@chrono@std@@_JU?$ratio@$00$0DLJKMKAA@@3@$0A@@chrono@std@@YA?AV?$duration@_JU?$ratio@$00$0DLJKMKAA@@std@@@01@AEBV201@@Z
pdata	ENDS
;	COMDAT pdata
pdata	SEGMENT
$pdata$??$?6U?$char_traits@D@std@@@std@@YAAEAV?$basic_ostream@DU?$char_traits@D@std@@@0@AEAV10@PEBD@Z DD imagerel $LN25
	DD	imagerel $LN25+1036
	DD	imagerel $unwind$??$?6U?$char_traits@D@std@@@std@@YAAEAV?$basic_ostream@DU?$char_traits@D@std@@@0@AEAV10@PEBD@Z
pdata	ENDS
;	COMDAT pdata
pdata	SEGMENT
$pdata$?dtor$0@?0???$?6U?$char_traits@D@std@@@std@@YAAEAV?$basic_ostream@DU?$char_traits@D@std@@@0@AEAV10@PEBD@Z@4HA DD imagerel ?dtor$0@?0???$?6U?$char_traits@D@std@@@std@@YAAEAV?$basic_ostream@DU?$char_traits@D@std@@@0@AEAV10@PEBD@Z@4HA
	DD	imagerel ?dtor$0@?0???$?6U?$char_traits@D@std@@@std@@YAAEAV?$basic_ostream@DU?$char_traits@D@std@@@0@AEAV10@PEBD@Z@4HA+36
	DD	imagerel $unwind$?dtor$0@?0???$?6U?$char_traits@D@std@@@std@@YAAEAV?$basic_ostream@DU?$char_traits@D@std@@@0@AEAV10@PEBD@Z@4HA
pdata	ENDS
;	COMDAT pdata
pdata	SEGMENT
$pdata$?catch$1@?0???$?6U?$char_traits@D@std@@@std@@YAAEAV?$basic_ostream@DU?$char_traits@D@std@@@0@AEAV10@PEBD@Z@4HA DD imagerel ?catch$1@?0???$?6U?$char_traits@D@std@@@std@@YAAEAV?$basic_ostream@DU?$char_traits@D@std@@@0@AEAV10@PEBD@Z@4HA
	DD	imagerel ?catch$1@?0???$?6U?$char_traits@D@std@@@std@@YAAEAV?$basic_ostream@DU?$char_traits@D@std@@@0@AEAV10@PEBD@Z@4HA+80
	DD	imagerel $unwind$?catch$1@?0???$?6U?$char_traits@D@std@@@std@@YAAEAV?$basic_ostream@DU?$char_traits@D@std@@@0@AEAV10@PEBD@Z@4HA
pdata	ENDS
;	COMDAT pdata
pdata	SEGMENT
$pdata$??$?6DU?$char_traits@D@std@@_J@std@@YAAEAV?$basic_ostream@DU?$char_traits@D@std@@@0@AEAV10@AEBU?$_Smanip@_J@0@@Z DD imagerel $LN3
	DD	imagerel $LN3+103
	DD	imagerel $unwind$??$?6DU?$char_traits@D@std@@_J@std@@YAAEAV?$basic_ostream@DU?$char_traits@D@std@@@0@AEAV10@AEBU?$_Smanip@_J@0@@Z
pdata	ENDS
;	COMDAT pdata
pdata	SEGMENT
$pdata$??$endl@DU?$char_traits@D@std@@@std@@YAAEAV?$basic_ostream@DU?$char_traits@D@std@@@0@AEAV10@@Z DD imagerel $LN3
	DD	imagerel $LN3+115
	DD	imagerel $unwind$??$endl@DU?$char_traits@D@std@@@std@@YAAEAV?$basic_ostream@DU?$char_traits@D@std@@@0@AEAV10@@Z
pdata	ENDS
;	COMDAT pdata
pdata	SEGMENT
$pdata$??0_Sentry_base@?$basic_ostream@DU?$char_traits@D@std@@@std@@QEAA@AEAV12@@Z DD imagerel $LN4
	DD	imagerel $LN4+148
	DD	imagerel $unwind$??0_Sentry_base@?$basic_ostream@DU?$char_traits@D@std@@@std@@QEAA@AEAV12@@Z
pdata	ENDS
;	COMDAT pdata
pdata	SEGMENT
$pdata$??1_Sentry_base@?$basic_ostream@DU?$char_traits@D@std@@@std@@QEAA@XZ DD imagerel $LN4
	DD	imagerel $LN4+120
	DD	imagerel $unwind$??1_Sentry_base@?$basic_ostream@DU?$char_traits@D@std@@@std@@QEAA@XZ
pdata	ENDS
;	COMDAT pdata
pdata	SEGMENT
$pdata$??0sentry@?$basic_ostream@DU?$char_traits@D@std@@@std@@QEAA@AEAV12@@Z DD imagerel $LN7
	DD	imagerel $LN7+261
	DD	imagerel $unwind$??0sentry@?$basic_ostream@DU?$char_traits@D@std@@@std@@QEAA@AEAV12@@Z
pdata	ENDS
;	COMDAT pdata
pdata	SEGMENT
$pdata$?dtor$0@?0???0sentry@?$basic_ostream@DU?$char_traits@D@std@@@std@@QEAA@AEAV12@@Z@4HA DD imagerel ?dtor$0@?0???0sentry@?$basic_ostream@DU?$char_traits@D@std@@@std@@QEAA@AEAV12@@Z@4HA
	DD	imagerel ?dtor$0@?0???0sentry@?$basic_ostream@DU?$char_traits@D@std@@@std@@QEAA@AEAV12@@Z@4HA+39
	DD	imagerel $unwind$?dtor$0@?0???0sentry@?$basic_ostream@DU?$char_traits@D@std@@@std@@QEAA@AEAV12@@Z@4HA
pdata	ENDS
;	COMDAT pdata
pdata	SEGMENT
$pdata$??1sentry@?$basic_ostream@DU?$char_traits@D@std@@@std@@QEAA@XZ DD imagerel $LN6
	DD	imagerel $LN6+116
	DD	imagerel $unwind$??1sentry@?$basic_ostream@DU?$char_traits@D@std@@@std@@QEAA@XZ
pdata	ENDS
;	COMDAT pdata
pdata	SEGMENT
$pdata$??Bsentry@?$basic_ostream@DU?$char_traits@D@std@@@std@@QEBA_NXZ DD imagerel $LN3
	DD	imagerel $LN3+52
	DD	imagerel $unwind$??Bsentry@?$basic_ostream@DU?$char_traits@D@std@@@std@@QEBA_NXZ
pdata	ENDS
;	COMDAT pdata
pdata	SEGMENT
$pdata$??$?G_JU?$ratio@$00$0DLJKMKAA@@std@@_JU01@@chrono@std@@YA?AV?$duration@_JU?$ratio@$00$0DLJKMKAA@@std@@@01@AEBV201@0@Z DD imagerel $LN3
	DD	imagerel $LN3+162
	DD	imagerel $unwind$??$?G_JU?$ratio@$00$0DLJKMKAA@@std@@_JU01@@chrono@std@@YA?AV?$duration@_JU?$ratio@$00$0DLJKMKAA@@std@@@01@AEBV201@0@Z
pdata	ENDS
;	COMDAT __real@3e112e0be826d695
CONST	SEGMENT
__real@3e112e0be826d695 DQ 03e112e0be826d695r	; 1e-09
CONST	ENDS
;	COMDAT rtc$TMZ
rtc$TMZ	SEGMENT
_RTC_Shutdown.rtc$TMZ DQ FLAT:_RTC_Shutdown
rtc$TMZ	ENDS
;	COMDAT rtc$IMZ
rtc$IMZ	SEGMENT
_RTC_InitBase.rtc$IMZ DQ FLAT:_RTC_InitBase
rtc$IMZ	ENDS
;	COMDAT ??_C@_1BK@MHIKGOKE@?$AA?3?$AAA?$AAM?$AA?3?$AAa?$AAm?$AA?3?$AAP?$AAM?$AA?3?$AAp?$AAm@
CONST	SEGMENT
??_C@_1BK@MHIKGOKE@?$AA?3?$AAA?$AAM?$AA?3?$AAa?$AAm?$AA?3?$AAP?$AAM?$AA?3?$AAp?$AAm@ DB ':'
	DB	00H, 'A', 00H, 'M', 00H, ':', 00H, 'a', 00H, 'm', 00H, ':', 00H
	DB	'P', 00H, 'M', 00H, ':', 00H, 'p', 00H, 'm', 00H, 00H, 00H ; `string'
CONST	ENDS
;	COMDAT ??_C@_0N@LPFKKEBD@?3AM?3am?3PM?3pm@
CONST	SEGMENT
??_C@_0N@LPFKKEBD@?3AM?3am?3PM?3pm@ DB ':AM:am:PM:pm', 00H ; `string'
CONST	ENDS
;	COMDAT ??_C@_0CB@KGIIJFCA@Time?5taken?5by?5Aavx?5program?5is?5?3@
CONST	SEGMENT
??_C@_0CB@KGIIJFCA@Time?5taken?5by?5Aavx?5program?5is?5?3@ DB 'Time taken'
	DB	' by Aavx program is : ', 00H		; `string'
CONST	ENDS
;	COMDAT ??_C@_0CB@NOJKNLMI@Time?5taken?5by?5Cpp?5program?5is?5?5?3@
CONST	SEGMENT
??_C@_0CB@NOJKNLMI@Time?5taken?5by?5Cpp?5program?5is?5?5?3@ DB 'Time take'
	DB	'n by Cpp program is  : ', 00H		; `string'
CONST	ENDS
;	COMDAT ??_C@_0CB@KPCJIIKF@Time?5taken?5by?5Iavx?5program?5is?5?3@
CONST	SEGMENT
??_C@_0CB@KPCJIIKF@Time?5taken?5by?5Iavx?5program?5is?5?3@ DB 'Time taken'
	DB	' by Iavx program is : ', 00H		; `string'
CONST	ENDS
;	COMDAT ??_C@_04IBFKBJDL@?5sec@
CONST	SEGMENT
??_C@_04IBFKBJDL@?5sec@ DB ' sec', 00H			; `string'
CONST	ENDS
;	COMDAT ??_C@_0GI@OGMNKBMN@C?3?2Program?5Files?5?$CIx86?$CJ?2Microsof@
CONST	SEGMENT
??_C@_0GI@OGMNKBMN@C?3?2Program?5Files?5?$CIx86?$CJ?2Microsof@ DB 'C:\Pro'
	DB	'gram Files (x86)\Microsoft Visual Studio\2019\Community\VC\To'
	DB	'ols\MSVC\14.29.30133\include\xlocnum', 00H	; `string'
CONST	ENDS
;	COMDAT ?__LINE__Var@?0??_Maklocwcs@std@@YAPEA_WPEB_W@Z@4JA
_DATA	SEGMENT
?__LINE__Var@?0??_Maklocwcs@std@@YAPEA_WPEB_W@Z@4JA DD 05aH ; `std::_Maklocwcs'::`1'::__LINE__Var
_DATA	ENDS
;	COMDAT ??_C@_0GI@GFIAKDGM@C?3?2Program?5Files?5?$CIx86?$CJ?2Microsof@
CONST	SEGMENT
??_C@_0GI@GFIAKDGM@C?3?2Program?5Files?5?$CIx86?$CJ?2Microsof@ DB 'C:\Pro'
	DB	'gram Files (x86)\Microsoft Visual Studio\2019\Community\VC\To'
	DB	'ols\MSVC\14.29.30133\include\xlocale', 00H	; `string'
CONST	ENDS
;	COMDAT xdata
xdata	SEGMENT
$unwind$??$?G_JU?$ratio@$00$0DLJKMKAA@@std@@_JU01@@chrono@std@@YA?AV?$duration@_JU?$ratio@$00$0DLJKMKAA@@std@@@01@AEBV201@0@Z DD 025051d01H
	DD	0118231dH
	DD	070110029H
	DD	05010H
xdata	ENDS
;	COMDAT xdata
xdata	SEGMENT
$unwind$??Bsentry@?$basic_ostream@DU?$char_traits@D@std@@@std@@QEBA_NXZ DD 025051301H
	DD	010e2313H
	DD	07007001dH
	DD	05006H
xdata	ENDS
;	COMDAT xdata
xdata	SEGMENT
$ip2state$??1sentry@?$basic_ostream@DU?$char_traits@D@std@@@std@@QEAA@XZ DB 02H
	DB	00H
	DB	00H
xdata	ENDS
;	COMDAT xdata
xdata	SEGMENT
$cppxdata$??1sentry@?$basic_ostream@DU?$char_traits@D@std@@@std@@QEAA@XZ DB 060H
	DD	imagerel $ip2state$??1sentry@?$basic_ostream@DU?$char_traits@D@std@@@std@@QEAA@XZ
xdata	ENDS
;	COMDAT xdata
xdata	SEGMENT
$unwind$??1sentry@?$basic_ostream@DU?$char_traits@D@std@@@std@@QEAA@XZ DD 025051319H
	DD	010e2313H
	DD	070070021H
	DD	05006H
	DD	imagerel __CxxFrameHandler4
	DD	imagerel $cppxdata$??1sentry@?$basic_ostream@DU?$char_traits@D@std@@@std@@QEAA@XZ
xdata	ENDS
;	COMDAT voltbl
voltbl	SEGMENT
_volmd	DB	00H
	DB	05H
voltbl	ENDS
;	COMDAT xdata
xdata	SEGMENT
$unwind$?dtor$0@?0???0sentry@?$basic_ostream@DU?$char_traits@D@std@@@std@@QEAA@AEAV12@@Z@4HA DD 031001H
	DD	0700c4210H
	DD	0500bH
xdata	ENDS
;	COMDAT xdata
xdata	SEGMENT
$ip2state$??0sentry@?$basic_ostream@DU?$char_traits@D@std@@@std@@QEAA@AEAV12@@Z DB 06H
	DB	00H
	DB	00H
	DB	'p'
	DB	02H
	DB	0f1H, 02H
	DB	00H
xdata	ENDS
;	COMDAT xdata
xdata	SEGMENT
$stateUnwindMap$??0sentry@?$basic_ostream@DU?$char_traits@D@std@@@std@@QEAA@AEAV12@@Z DB 02H
	DB	0eH
	DD	imagerel ?dtor$0@?0???0sentry@?$basic_ostream@DU?$char_traits@D@std@@@std@@QEAA@AEAV12@@Z@4HA
xdata	ENDS
;	COMDAT xdata
xdata	SEGMENT
$cppxdata$??0sentry@?$basic_ostream@DU?$char_traits@D@std@@@std@@QEAA@AEAV12@@Z DB 028H
	DD	imagerel $stateUnwindMap$??0sentry@?$basic_ostream@DU?$char_traits@D@std@@@std@@QEAA@AEAV12@@Z
	DD	imagerel $ip2state$??0sentry@?$basic_ostream@DU?$char_traits@D@std@@@std@@QEAA@AEAV12@@Z
xdata	ENDS
;	COMDAT xdata
xdata	SEGMENT
$unwind$??0sentry@?$basic_ostream@DU?$char_traits@D@std@@@std@@QEAA@AEAV12@@Z DD 025051811H
	DD	01132318H
	DD	0700c0021H
	DD	0500bH
	DD	imagerel __CxxFrameHandler4
	DD	imagerel $cppxdata$??0sentry@?$basic_ostream@DU?$char_traits@D@std@@@std@@QEAA@AEAV12@@Z
xdata	ENDS
;	COMDAT xdata
xdata	SEGMENT
$ip2state$??1_Sentry_base@?$basic_ostream@DU?$char_traits@D@std@@@std@@QEAA@XZ DB 02H
	DB	00H
	DB	00H
xdata	ENDS
;	COMDAT xdata
xdata	SEGMENT
$cppxdata$??1_Sentry_base@?$basic_ostream@DU?$char_traits@D@std@@@std@@QEAA@XZ DB 060H
	DD	imagerel $ip2state$??1_Sentry_base@?$basic_ostream@DU?$char_traits@D@std@@@std@@QEAA@XZ
xdata	ENDS
;	COMDAT xdata
xdata	SEGMENT
$unwind$??1_Sentry_base@?$basic_ostream@DU?$char_traits@D@std@@@std@@QEAA@XZ DD 025051319H
	DD	010e2313H
	DD	070070021H
	DD	05006H
	DD	imagerel __CxxFrameHandler4
	DD	imagerel $cppxdata$??1_Sentry_base@?$basic_ostream@DU?$char_traits@D@std@@@std@@QEAA@XZ
xdata	ENDS
;	COMDAT xdata
xdata	SEGMENT
$unwind$??0_Sentry_base@?$basic_ostream@DU?$char_traits@D@std@@@std@@QEAA@AEAV12@@Z DD 025051801H
	DD	01132318H
	DD	0700c0021H
	DD	0500bH
xdata	ENDS
;	COMDAT xdata
xdata	SEGMENT
$unwind$??$endl@DU?$char_traits@D@std@@@std@@YAAEAV?$basic_ostream@DU?$char_traits@D@std@@@0@AEAV10@@Z DD 025051301H
	DD	010e2313H
	DD	07007001dH
	DD	05006H
xdata	ENDS
;	COMDAT xdata
xdata	SEGMENT
$unwind$??$?6DU?$char_traits@D@std@@_J@std@@YAAEAV?$basic_ostream@DU?$char_traits@D@std@@@0@AEAV10@AEBU?$_Smanip@_J@0@@Z DD 025051801H
	DD	01132318H
	DD	0700c001dH
	DD	0500bH
xdata	ENDS
;	COMDAT voltbl
voltbl	SEGMENT
_volmd	DB	00H
	DB	05H
voltbl	ENDS
;	COMDAT voltbl
voltbl	SEGMENT
_volmd	DB	00H
	DB	05H
voltbl	ENDS
;	COMDAT voltbl
voltbl	SEGMENT
_volmd	DW	03bH
	DW	03f3H
voltbl	ENDS
;	COMDAT xdata
xdata	SEGMENT
$unwind$?catch$1@?0???$?6U?$char_traits@D@std@@@std@@YAAEAV?$basic_ostream@DU?$char_traits@D@std@@@0@AEAV10@PEBD@Z@4HA DD 031001H
	DD	0700c4210H
	DD	0500bH
xdata	ENDS
;	COMDAT xdata
xdata	SEGMENT
$unwind$?dtor$0@?0???$?6U?$char_traits@D@std@@@std@@YAAEAV?$basic_ostream@DU?$char_traits@D@std@@@0@AEAV10@PEBD@Z@4HA DD 031001H
	DD	0700c4210H
	DD	0500bH
xdata	ENDS
;	COMDAT xdata
xdata	SEGMENT
$ip2state$??$?6U?$char_traits@D@std@@@std@@YAAEAV?$basic_ostream@DU?$char_traits@D@std@@@0@AEAV10@PEBD@Z DB 0aH
	DB	00H
	DB	00H
	DB	'A', 04H
	DB	02H
	DB	'<'
	DB	04H
	DB	095H, 09H
	DB	02H
	DB	't'
	DB	00H
xdata	ENDS
;	COMDAT xdata
xdata	SEGMENT
$handlerMap$??$?6U?$char_traits@D@std@@@std@@YAAEAV?$basic_ostream@DU?$char_traits@D@std@@@0@AEAV10@PEBD@Z DB 02H
	DB	01H
	DB	080H
	DD	imagerel ?catch$1@?0???$?6U?$char_traits@D@std@@@std@@YAAEAV?$basic_ostream@DU?$char_traits@D@std@@@0@AEAV10@PEBD@Z@4HA
xdata	ENDS
;	COMDAT xdata
xdata	SEGMENT
$tryMap$??$?6U?$char_traits@D@std@@@std@@YAAEAV?$basic_ostream@DU?$char_traits@D@std@@@0@AEAV10@PEBD@Z DB 02H
	DB	02H
	DB	02H
	DB	04H
	DD	imagerel $handlerMap$??$?6U?$char_traits@D@std@@@std@@YAAEAV?$basic_ostream@DU?$char_traits@D@std@@@0@AEAV10@PEBD@Z
xdata	ENDS
;	COMDAT xdata
xdata	SEGMENT
$stateUnwindMap$??$?6U?$char_traits@D@std@@@std@@YAAEAV?$basic_ostream@DU?$char_traits@D@std@@@0@AEAV10@PEBD@Z DB 06H
	DB	0eH
	DD	imagerel ?dtor$0@?0???$?6U?$char_traits@D@std@@@std@@YAAEAV?$basic_ostream@DU?$char_traits@D@std@@@0@AEAV10@PEBD@Z@4HA
	DB	028H
	DB	030H
xdata	ENDS
;	COMDAT xdata
xdata	SEGMENT
$cppxdata$??$?6U?$char_traits@D@std@@@std@@YAAEAV?$basic_ostream@DU?$char_traits@D@std@@@0@AEAV10@PEBD@Z DB 038H
	DD	imagerel $stateUnwindMap$??$?6U?$char_traits@D@std@@@std@@YAAEAV?$basic_ostream@DU?$char_traits@D@std@@@0@AEAV10@PEBD@Z
	DD	imagerel $tryMap$??$?6U?$char_traits@D@std@@@std@@YAAEAV?$basic_ostream@DU?$char_traits@D@std@@@0@AEAV10@PEBD@Z
	DD	imagerel $ip2state$??$?6U?$char_traits@D@std@@@std@@YAAEAV?$basic_ostream@DU?$char_traits@D@std@@@0@AEAV10@PEBD@Z
xdata	ENDS
;	COMDAT xdata
xdata	SEGMENT
$unwind$??$?6U?$char_traits@D@std@@@std@@YAAEAV?$basic_ostream@DU?$char_traits@D@std@@@0@AEAV10@PEBD@Z DD 025054219H
	DD	01132318H
	DD	0700c0045H
	DD	0500bH
	DD	imagerel __GSHandlerCheck_EH4
	DD	imagerel $cppxdata$??$?6U?$char_traits@D@std@@@std@@YAAEAV?$basic_ostream@DU?$char_traits@D@std@@@0@AEAV10@PEBD@Z
	DD	021bH
xdata	ENDS
;	COMDAT CONST
CONST	SEGMENT
??$?6U?$char_traits@D@std@@@std@@YAAEAV?$basic_ostream@DU?$char_traits@D@std@@@0@AEAV10@PEBD@Z$rtcName$0 DB 05fH ; std::operator<<<std::char_traits<char> >
	DB	04fH
	DB	06bH
	DB	00H
	ORG $+12
??$?6U?$char_traits@D@std@@@std@@YAAEAV?$basic_ostream@DU?$char_traits@D@std@@@0@AEAV10@PEBD@Z$rtcVarDesc DD 088H ; std::operator<<<std::char_traits<char> >
	DD	010H
	DQ	FLAT:??$?6U?$char_traits@D@std@@@std@@YAAEAV?$basic_ostream@DU?$char_traits@D@std@@@0@AEAV10@PEBD@Z$rtcName$0
	ORG $+48
??$?6U?$char_traits@D@std@@@std@@YAAEAV?$basic_ostream@DU?$char_traits@D@std@@@0@AEAV10@PEBD@Z$rtcFrameData DD 01H ; std::operator<<<std::char_traits<char> >
	DD	00H
	DQ	FLAT:??$?6U?$char_traits@D@std@@@std@@YAAEAV?$basic_ostream@DU?$char_traits@D@std@@@0@AEAV10@PEBD@Z$rtcVarDesc
CONST	ENDS
;	COMDAT xdata
xdata	SEGMENT
$unwind$??$duration_cast@V?$duration@_JU?$ratio@$00$0DLJKMKAA@@std@@@chrono@std@@_JU?$ratio@$00$0DLJKMKAA@@3@$0A@@chrono@std@@YA?AV?$duration@_JU?$ratio@$00$0DLJKMKAA@@std@@@01@AEBV201@@Z DD 025051801H
	DD	01132318H
	DD	0700c0035H
	DD	0500bH
xdata	ENDS
;	COMDAT xdata
xdata	SEGMENT
$unwind$??$?GUsteady_clock@chrono@std@@V?$duration@_JU?$ratio@$00$0DLJKMKAA@@std@@@12@V312@@chrono@std@@YA?AV?$duration@_JU?$ratio@$00$0DLJKMKAA@@std@@@01@AEBV?$time_point@Usteady_clock@chrono@std@@V?$duration@_JU?$ratio@$00$0DLJKMKAA@@std@@@23@@01@0@Z DD 025051d01H
	DD	0118231dH
	DD	070110025H
	DD	05010H
xdata	ENDS
;	COMDAT voltbl
voltbl	SEGMENT
_volmd	DW	02aH
	DW	042bH
voltbl	ENDS
;	COMDAT xdata
xdata	SEGMENT
$unwind$main DD	025053119H
	DD	010a230fH
	DD	07003009dH
	DD	05002H
	DD	imagerel __GSHandlerCheck
	DD	04d0H
xdata	ENDS
;	COMDAT CONST
CONST	SEGMENT
main$rtcName$0 DB 073H
	DB	074H
	DB	061H
	DB	072H
	DB	074H
	DB	00H
	ORG $+2
main$rtcName$1 DB 065H
	DB	06eH
	DB	064H
	DB	00H
	ORG $+4
main$rtcVarDesc DD 0e8H
	DD	08H
	DQ	FLAT:main$rtcName$1
	DD	0c8H
	DD	08H
	DQ	FLAT:main$rtcName$0
	ORG $+96
main$rtcFrameData DD 02H
	DD	00H
	DQ	FLAT:main$rtcVarDesc
CONST	ENDS
;	COMDAT xdata
xdata	SEGMENT
$unwind$??$?0_J$0A@@?$duration@_JU?$ratio@$00$0DLJKMKAA@@std@@@chrono@std@@QEAA@AEB_J@Z DD 025051801H
	DD	01132318H
	DD	0700c001dH
	DD	0500bH
xdata	ENDS
;	COMDAT xdata
xdata	SEGMENT
$unwind$?time_since_epoch@?$time_point@Usteady_clock@chrono@std@@V?$duration@_JU?$ratio@$00$0DLJKMKAA@@std@@@23@@chrono@std@@QEBA?AV?$duration@_JU?$ratio@$00$0DLJKMKAA@@std@@@23@XZ DD 025051801H
	DD	01132318H
	DD	0700c001dH
	DD	0500bH
xdata	ENDS
;	COMDAT xdata
xdata	SEGMENT
$unwind$??0?$time_point@Usteady_clock@chrono@std@@V?$duration@_JU?$ratio@$00$0DLJKMKAA@@std@@@23@@chrono@std@@QEAA@AEBV?$duration@_JU?$ratio@$00$0DLJKMKAA@@std@@@12@@Z DD 025051801H
	DD	01132318H
	DD	0700c001dH
	DD	0500bH
xdata	ENDS
;	COMDAT xdata
xdata	SEGMENT
$unwind$?count@?$duration@_JU?$ratio@$00$0DLJKMKAA@@std@@@chrono@std@@QEBA_JXZ DD 025051301H
	DD	010e2313H
	DD	07007001dH
	DD	05006H
xdata	ENDS
;	COMDAT xdata
xdata	SEGMENT
$unwind$?now@steady_clock@chrono@std@@SA?AV?$time_point@Usteady_clock@chrono@std@@V?$duration@_JU?$ratio@$00$0DLJKMKAA@@std@@@23@@23@XZ DD 025051301H
	DD	010e2313H
	DD	070070035H
	DD	05006H
xdata	ENDS
;	COMDAT xdata
xdata	SEGMENT
$unwind$?CalcZ_Iavx@@YAXPEAMPEBM1_K@Z DD 02d062d01H
	DD	011f2324H
	DD	07018005aH
	DD	0d0165017H
xdata	ENDS
;	COMDAT xdata
xdata	SEGMENT
$unwind$?CalcZ_Cpp@@YAXPEAMPEBM1_K@Z DD 025052201H
	DD	011d2322H
	DD	070160021H
	DD	05015H
xdata	ENDS
;	COMDAT xdata
xdata	SEGMENT
$unwind$??$_Getvals@_W@?$time_get@_WV?$istreambuf_iterator@_WU?$char_traits@_W@std@@@std@@@std@@IEAAX_WAEBV_Locinfo@1@@Z DD 025061e01H
	DD	0119231eH
	DD	070120026H
	DD	050106011H
xdata	ENDS
;	COMDAT xdata
xdata	SEGMENT
$unwind$??$_Getvals@_W@?$time_get@DV?$istreambuf_iterator@DU?$char_traits@D@std@@@std@@@std@@IEAAX_WAEBV_Locinfo@1@@Z DD 025061e01H
	DD	0119231eH
	DD	070120026H
	DD	050106011H
xdata	ENDS
;	COMDAT xdata
xdata	SEGMENT
$unwind$?fixed@std@@YAAEAVios_base@1@AEAV21@@Z DD 025051301H
	DD	010e2313H
	DD	07007001dH
	DD	05006H
xdata	ENDS
;	COMDAT xdata
xdata	SEGMENT
$unwind$??$_Maklocstr@D@std@@YAPEADPEBDPEADAEBU_Cvtvec@@@Z DD 035051d01H
	DD	0118331dH
	DD	07011002bH
	DD	05010H
xdata	ENDS
;	COMDAT xdata
xdata	SEGMENT
$unwind$?_Maklocwcs@std@@YAPEA_WPEB_W@Z DD 035051301H
	DD	010e3313H
	DD	070070027H
	DD	05006H
xdata	ENDS
;	COMDAT voltbl
voltbl	SEGMENT
_volmd	DW	040H
	DW	0231H
voltbl	ENDS
;	COMDAT xdata
xdata	SEGMENT
$unwind$??$_Maklocstr@_W@std@@YAPEA_WPEBDPEA_WAEBU_Cvtvec@@@Z DD 035054719H
	DD	0118331dH
	DD	070110047H
	DD	05010H
	DD	imagerel __GSHandlerCheck
	DD	0228H
xdata	ENDS
;	COMDAT CONST
CONST	SEGMENT
??$_Maklocstr@_W@std@@YAPEA_WPEBDPEA_WAEBU_Cvtvec@@@Z$rtcName$0 DB 05fH ; std::_Maklocstr<wchar_t>
	DB	057H
	DB	063H
	DB	00H
??$_Maklocstr@_W@std@@YAPEA_WPEBDPEA_WAEBU_Cvtvec@@@Z$rtcName$1 DB 05fH ; std::_Maklocstr<wchar_t>
	DB	04dH
	DB	062H
	DB	073H
	DB	074H
	DB	031H
	DB	00H
	ORG $+1
??$_Maklocstr@_W@std@@YAPEA_WPEBDPEA_WAEBU_Cvtvec@@@Z$rtcName$2 DB 05fH ; std::_Maklocstr<wchar_t>
	DB	04dH
	DB	062H
	DB	073H
	DB	074H
	DB	032H
	DB	00H
	ORG $+13
??$_Maklocstr@_W@std@@YAPEA_WPEBDPEA_WAEBU_Cvtvec@@@Z$rtcVarDesc DD 0158H ; std::_Maklocstr<wchar_t>
	DD	08H
	DQ	FLAT:??$_Maklocstr@_W@std@@YAPEA_WPEBDPEA_WAEBU_Cvtvec@@@Z$rtcName$2
	DD	0f8H
	DD	08H
	DQ	FLAT:??$_Maklocstr@_W@std@@YAPEA_WPEBDPEA_WAEBU_Cvtvec@@@Z$rtcName$1
	DD	0d4H
	DD	02H
	DQ	FLAT:??$_Maklocstr@_W@std@@YAPEA_WPEBDPEA_WAEBU_Cvtvec@@@Z$rtcName$0
	ORG $+144
??$_Maklocstr@_W@std@@YAPEA_WPEBDPEA_WAEBU_Cvtvec@@@Z$rtcFrameData DD 03H ; std::_Maklocstr<wchar_t>
	DD	00H
	DQ	FLAT:??$_Maklocstr@_W@std@@YAPEA_WPEBDPEA_WAEBU_Cvtvec@@@Z$rtcVarDesc
CONST	ENDS
;	COMDAT xdata
xdata	SEGMENT
$unwind$?eof@?$_Narrow_char_traits@DH@std@@SAHXZ DD 025050f01H
	DD	010a230fH
	DD	07003001dH
	DD	05002H
xdata	ENDS
;	COMDAT xdata
xdata	SEGMENT
$unwind$?eq_int_type@?$_Narrow_char_traits@DH@std@@SA_NAEBH0@Z DD 025051801H
	DD	01132318H
	DD	0700c001fH
	DD	0500bH
xdata	ENDS
;	COMDAT xdata
xdata	SEGMENT
$unwind$?length@?$_Narrow_char_traits@DH@std@@SA_KQEBD@Z DD 025051301H
	DD	010e2313H
	DD	07007001dH
	DD	05006H
xdata	ENDS
;	COMDAT xdata
xdata	SEGMENT
$unwind$wmemcpy DD 025051d01H
	DD	0118231dH
	DD	07011001dH
	DD	05010H
xdata	ENDS
;	COMDAT xdata
xdata	SEGMENT
$unwind$?__empty_global_delete@@YAXPEAX_K@Z DD 025051801H
	DD	01132318H
	DD	0700c001dH
	DD	0500bH
xdata	ENDS
;	COMDAT xdata
xdata	SEGMENT
$unwind$?__empty_global_delete@@YAXPEAX@Z DD 025051301H
	DD	010e2313H
	DD	07007001dH
	DD	05006H
xdata	ENDS
; Function compile flags: /Odt
;	COMDAT __JustMyCode_Default
_TEXT	SEGMENT
__JustMyCode_Default PROC				; COMDAT
  00000	c2 00 00	 ret	 0
__JustMyCode_Default ENDP
_TEXT	ENDS
; Function compile flags: /Odtp /RTCsu /ZI
; File C:\Program Files (x86)\Microsoft Visual Studio\2019\Community\VC\Tools\MSVC\14.29.30133\include\chrono
;	COMDAT ??$?G_JU?$ratio@$00$0DLJKMKAA@@std@@_JU01@@chrono@std@@YA?AV?$duration@_JU?$ratio@$00$0DLJKMKAA@@std@@@01@AEBV201@0@Z
_TEXT	SEGMENT
$T1 = 200
$T2 = 232
$T3 = 264
tv68 = 280
__$ReturnUdt$ = 320
_Left$ = 328
_Right$ = 336
??$?G_JU?$ratio@$00$0DLJKMKAA@@std@@_JU01@@chrono@std@@YA?AV?$duration@_JU?$ratio@$00$0DLJKMKAA@@std@@@01@AEBV201@0@Z PROC ; std::chrono::operator-<__int64,std::ratio<1,1000000000>,__int64,std::ratio<1,1000000000> >, COMDAT

; 312  :             is_arithmetic_v<_Rep1>&& is_arithmetic_v<_Rep2>) /* strengthened */ {

$LN3:
  00000	4c 89 44 24 18	 mov	 QWORD PTR [rsp+24], r8
  00005	48 89 54 24 10	 mov	 QWORD PTR [rsp+16], rdx
  0000a	48 89 4c 24 08	 mov	 QWORD PTR [rsp+8], rcx
  0000f	55		 push	 rbp
  00010	57		 push	 rdi
  00011	48 81 ec 48 01
	00 00		 sub	 rsp, 328		; 00000148H
  00018	48 8d 6c 24 20	 lea	 rbp, QWORD PTR [rsp+32]
  0001d	48 8d 0d 00 00
	00 00		 lea	 rcx, OFFSET FLAT:__1B08F288_chrono
  00024	e8 00 00 00 00	 call	 __CheckForDebuggerJustMyCode

; 313  :         using _CD = common_type_t<duration<_Rep1, _Period1>, duration<_Rep2, _Period2>>;
; 314  :         return _CD(_CD(_Left).count() - _CD(_Right).count());

  00029	48 8b 85 48 01
	00 00		 mov	 rax, QWORD PTR _Left$[rbp]
  00030	48 8b 00	 mov	 rax, QWORD PTR [rax]
  00033	48 89 85 e8 00
	00 00		 mov	 QWORD PTR $T2[rbp], rax
  0003a	48 8b 85 50 01
	00 00		 mov	 rax, QWORD PTR _Right$[rbp]
  00041	48 8b 00	 mov	 rax, QWORD PTR [rax]
  00044	48 89 85 08 01
	00 00		 mov	 QWORD PTR $T3[rbp], rax
  0004b	48 8d 8d e8 00
	00 00		 lea	 rcx, QWORD PTR $T2[rbp]
  00052	e8 00 00 00 00	 call	 ?count@?$duration@_JU?$ratio@$00$0DLJKMKAA@@std@@@chrono@std@@QEBA_JXZ ; std::chrono::duration<__int64,std::ratio<1,1000000000> >::count
  00057	48 89 85 18 01
	00 00		 mov	 QWORD PTR tv68[rbp], rax
  0005e	48 8d 8d 08 01
	00 00		 lea	 rcx, QWORD PTR $T3[rbp]
  00065	e8 00 00 00 00	 call	 ?count@?$duration@_JU?$ratio@$00$0DLJKMKAA@@std@@@chrono@std@@QEBA_JXZ ; std::chrono::duration<__int64,std::ratio<1,1000000000> >::count
  0006a	48 8b 8d 18 01
	00 00		 mov	 rcx, QWORD PTR tv68[rbp]
  00071	48 2b c8	 sub	 rcx, rax
  00074	48 8b c1	 mov	 rax, rcx
  00077	48 89 85 c8 00
	00 00		 mov	 QWORD PTR $T1[rbp], rax
  0007e	48 8d 95 c8 00
	00 00		 lea	 rdx, QWORD PTR $T1[rbp]
  00085	48 8b 8d 40 01
	00 00		 mov	 rcx, QWORD PTR __$ReturnUdt$[rbp]
  0008c	e8 00 00 00 00	 call	 ??$?0_J$0A@@?$duration@_JU?$ratio@$00$0DLJKMKAA@@std@@@chrono@std@@QEAA@AEB_J@Z ; std::chrono::duration<__int64,std::ratio<1,1000000000> >::duration<__int64,std::ratio<1,1000000000> ><__int64,0>
  00091	48 8b 85 40 01
	00 00		 mov	 rax, QWORD PTR __$ReturnUdt$[rbp]

; 315  :     }

  00098	48 8d a5 28 01
	00 00		 lea	 rsp, QWORD PTR [rbp+296]
  0009f	5f		 pop	 rdi
  000a0	5d		 pop	 rbp
  000a1	c3		 ret	 0
??$?G_JU?$ratio@$00$0DLJKMKAA@@std@@_JU01@@chrono@std@@YA?AV?$duration@_JU?$ratio@$00$0DLJKMKAA@@std@@@01@AEBV201@0@Z ENDP ; std::chrono::operator-<__int64,std::ratio<1,1000000000>,__int64,std::ratio<1,1000000000> >
_TEXT	ENDS
; Function compile flags: /Odtp /RTCsu /ZI
; File C:\Program Files (x86)\Microsoft Visual Studio\2019\Community\VC\Tools\MSVC\14.29.30133\include\ostream
;	COMDAT ??Bsentry@?$basic_ostream@DU?$char_traits@D@std@@@std@@QEBA_NXZ
_TEXT	SEGMENT
this$ = 224
??Bsentry@?$basic_ostream@DU?$char_traits@D@std@@@std@@QEBA_NXZ PROC ; std::basic_ostream<char,std::char_traits<char> >::sentry::operator bool, COMDAT

; 124  :         explicit __CLR_OR_THIS_CALL operator bool() const {

$LN3:
  00000	48 89 4c 24 08	 mov	 QWORD PTR [rsp+8], rcx
  00005	55		 push	 rbp
  00006	57		 push	 rdi
  00007	48 81 ec e8 00
	00 00		 sub	 rsp, 232		; 000000e8H
  0000e	48 8d 6c 24 20	 lea	 rbp, QWORD PTR [rsp+32]
  00013	48 8d 0d 00 00
	00 00		 lea	 rcx, OFFSET FLAT:__C12F3EA4_ostream
  0001a	e8 00 00 00 00	 call	 __CheckForDebuggerJustMyCode

; 125  :             return _Ok;

  0001f	48 8b 85 e0 00
	00 00		 mov	 rax, QWORD PTR this$[rbp]
  00026	0f b6 40 08	 movzx	 eax, BYTE PTR [rax+8]

; 126  :         }

  0002a	48 8d a5 c8 00
	00 00		 lea	 rsp, QWORD PTR [rbp+200]
  00031	5f		 pop	 rdi
  00032	5d		 pop	 rbp
  00033	c3		 ret	 0
??Bsentry@?$basic_ostream@DU?$char_traits@D@std@@@std@@QEBA_NXZ ENDP ; std::basic_ostream<char,std::char_traits<char> >::sentry::operator bool
_TEXT	ENDS
; Function compile flags: /Odtp /RTCsu /ZI
; File C:\Program Files (x86)\Microsoft Visual Studio\2019\Community\VC\Tools\MSVC\14.29.30133\include\ostream
;	COMDAT ??1sentry@?$basic_ostream@DU?$char_traits@D@std@@@std@@QEAA@XZ
_TEXT	SEGMENT
_Zero_uncaught_exceptions$ = 4
tv72 = 212
this$ = 256
??1sentry@?$basic_ostream@DU?$char_traits@D@std@@@std@@QEAA@XZ PROC ; std::basic_ostream<char,std::char_traits<char> >::sentry::~sentry, COMDAT

; 109  :         __CLR_OR_THIS_CALL ~sentry() noexcept {

$LN6:
  00000	48 89 4c 24 08	 mov	 QWORD PTR [rsp+8], rcx
  00005	55		 push	 rbp
  00006	57		 push	 rdi
  00007	48 81 ec 08 01
	00 00		 sub	 rsp, 264		; 00000108H
  0000e	48 8d 6c 24 20	 lea	 rbp, QWORD PTR [rsp+32]
  00013	48 8d 0d 00 00
	00 00		 lea	 rcx, OFFSET FLAT:__C12F3EA4_ostream
  0001a	e8 00 00 00 00	 call	 __CheckForDebuggerJustMyCode

; 110  : #if !_HAS_EXCEPTIONS
; 111  :             const bool _Zero_uncaught_exceptions = true;
; 112  : #elif _HAS_DEPRECATED_UNCAUGHT_EXCEPTION
; 113  :             const bool _Zero_uncaught_exceptions = !_STD uncaught_exception(); // TRANSITION, ArchivedOS-12000909

  0001f	e8 00 00 00 00	 call	 ?uncaught_exception@std@@YA_NXZ ; std::uncaught_exception
  00024	0f b6 c0	 movzx	 eax, al
  00027	85 c0		 test	 eax, eax
  00029	75 09		 jne	 SHORT $LN4@sentry
  0002b	c6 85 d4 00 00
	00 01		 mov	 BYTE PTR tv72[rbp], 1
  00032	eb 07		 jmp	 SHORT $LN5@sentry
$LN4@sentry:
  00034	c6 85 d4 00 00
	00 00		 mov	 BYTE PTR tv72[rbp], 0
$LN5@sentry:
  0003b	0f b6 85 d4 00
	00 00		 movzx	 eax, BYTE PTR tv72[rbp]
  00042	88 45 04	 mov	 BYTE PTR _Zero_uncaught_exceptions$[rbp], al

; 114  : #else // ^^^ _HAS_DEPRECATED_UNCAUGHT_EXCEPTION / !_HAS_DEPRECATED_UNCAUGHT_EXCEPTION vvv
; 115  :             const bool _Zero_uncaught_exceptions = _STD uncaught_exceptions() == 0;
; 116  : #endif // !_HAS_DEPRECATED_UNCAUGHT_EXCEPTION
; 117  : 
; 118  :             if (_Zero_uncaught_exceptions) {

  00045	0f b6 45 04	 movzx	 eax, BYTE PTR _Zero_uncaught_exceptions$[rbp]
  00049	85 c0		 test	 eax, eax
  0004b	74 10		 je	 SHORT $LN2@sentry

; 119  :                 this->_Myostr._Osfx();

  0004d	48 8b 85 00 01
	00 00		 mov	 rax, QWORD PTR this$[rbp]
  00054	48 8b 08	 mov	 rcx, QWORD PTR [rax]
  00057	ff 15 00 00 00
	00		 call	 QWORD PTR __imp_?_Osfx@?$basic_ostream@DU?$char_traits@D@std@@@std@@QEAAXXZ
$LN2@sentry:

; 120  :             }
; 121  :         }

  0005d	48 8b 8d 00 01
	00 00		 mov	 rcx, QWORD PTR this$[rbp]
  00064	e8 00 00 00 00	 call	 ??1_Sentry_base@?$basic_ostream@DU?$char_traits@D@std@@@std@@QEAA@XZ ; std::basic_ostream<char,std::char_traits<char> >::_Sentry_base::~_Sentry_base
  00069	90		 npad	 1
  0006a	48 8d a5 e8 00
	00 00		 lea	 rsp, QWORD PTR [rbp+232]
  00071	5f		 pop	 rdi
  00072	5d		 pop	 rbp
  00073	c3		 ret	 0
??1sentry@?$basic_ostream@DU?$char_traits@D@std@@@std@@QEAA@XZ ENDP ; std::basic_ostream<char,std::char_traits<char> >::sentry::~sentry
_TEXT	ENDS
; Function compile flags: /Odtp /RTCsu /ZI
; File C:\Program Files (x86)\Microsoft Visual Studio\2019\Community\VC\Tools\MSVC\14.29.30133\include\ostream
;	COMDAT ??0sentry@?$basic_ostream@DU?$char_traits@D@std@@@std@@QEAA@AEAV12@@Z
_TEXT	SEGMENT
_Tied$ = 8
this$ = 256
_Ostr$ = 264
??0sentry@?$basic_ostream@DU?$char_traits@D@std@@@std@@QEAA@AEAV12@@Z PROC ; std::basic_ostream<char,std::char_traits<char> >::sentry::sentry, COMDAT

; 92   :         explicit __CLR_OR_THIS_CALL sentry(basic_ostream& _Ostr) : _Sentry_base(_Ostr) {

$LN7:
  00000	48 89 54 24 10	 mov	 QWORD PTR [rsp+16], rdx
  00005	48 89 4c 24 08	 mov	 QWORD PTR [rsp+8], rcx
  0000a	55		 push	 rbp
  0000b	57		 push	 rdi
  0000c	48 81 ec 08 01
	00 00		 sub	 rsp, 264		; 00000108H
  00013	48 8d 6c 24 20	 lea	 rbp, QWORD PTR [rsp+32]
  00018	48 8d 0d 00 00
	00 00		 lea	 rcx, OFFSET FLAT:__C12F3EA4_ostream
  0001f	e8 00 00 00 00	 call	 __CheckForDebuggerJustMyCode
  00024	48 8b 95 08 01
	00 00		 mov	 rdx, QWORD PTR _Ostr$[rbp]
  0002b	48 8b 8d 00 01
	00 00		 mov	 rcx, QWORD PTR this$[rbp]
  00032	e8 00 00 00 00	 call	 ??0_Sentry_base@?$basic_ostream@DU?$char_traits@D@std@@@std@@QEAA@AEAV12@@Z ; std::basic_ostream<char,std::char_traits<char> >::_Sentry_base::_Sentry_base
  00037	90		 npad	 1

; 93   :             if (!_Ostr.good()) {

  00038	48 8b 85 08 01
	00 00		 mov	 rax, QWORD PTR _Ostr$[rbp]
  0003f	48 8b 00	 mov	 rax, QWORD PTR [rax]
  00042	48 63 40 04	 movsxd	 rax, DWORD PTR [rax+4]
  00046	48 8b 8d 08 01
	00 00		 mov	 rcx, QWORD PTR _Ostr$[rbp]
  0004d	48 03 c8	 add	 rcx, rax
  00050	48 8b c1	 mov	 rax, rcx
  00053	48 8b c8	 mov	 rcx, rax
  00056	ff 15 00 00 00
	00		 call	 QWORD PTR __imp_?good@ios_base@std@@QEBA_NXZ
  0005c	0f b6 c0	 movzx	 eax, al
  0005f	85 c0		 test	 eax, eax
  00061	75 10		 jne	 SHORT $LN2@sentry

; 94   :                 _Ok = false;

  00063	48 8b 85 00 01
	00 00		 mov	 rax, QWORD PTR this$[rbp]
  0006a	c6 40 08 00	 mov	 BYTE PTR [rax+8], 0

; 95   :                 return;

  0006e	e9 81 00 00 00	 jmp	 $LN1@sentry
$LN2@sentry:

; 96   :             }
; 97   : 
; 98   :             const auto _Tied = _Ostr.tie();

  00073	48 8b 85 08 01
	00 00		 mov	 rax, QWORD PTR _Ostr$[rbp]
  0007a	48 8b 00	 mov	 rax, QWORD PTR [rax]
  0007d	48 63 40 04	 movsxd	 rax, DWORD PTR [rax+4]
  00081	48 8b 8d 08 01
	00 00		 mov	 rcx, QWORD PTR _Ostr$[rbp]
  00088	48 03 c8	 add	 rcx, rax
  0008b	48 8b c1	 mov	 rax, rcx
  0008e	48 8b c8	 mov	 rcx, rax
  00091	ff 15 00 00 00
	00		 call	 QWORD PTR __imp_?tie@?$basic_ios@DU?$char_traits@D@std@@@std@@QEBAPEAV?$basic_ostream@DU?$char_traits@D@std@@@2@XZ
  00097	48 89 45 08	 mov	 QWORD PTR _Tied$[rbp], rax

; 99   :             if (!_Tied || _Tied == &_Ostr) {

  0009b	48 83 7d 08 00	 cmp	 QWORD PTR _Tied$[rbp], 0
  000a0	74 0d		 je	 SHORT $LN4@sentry
  000a2	48 8b 85 08 01
	00 00		 mov	 rax, QWORD PTR _Ostr$[rbp]
  000a9	48 39 45 08	 cmp	 QWORD PTR _Tied$[rbp], rax
  000ad	75 0d		 jne	 SHORT $LN3@sentry
$LN4@sentry:

; 100  :                 _Ok = true;

  000af	48 8b 85 00 01
	00 00		 mov	 rax, QWORD PTR this$[rbp]
  000b6	c6 40 08 01	 mov	 BYTE PTR [rax+8], 1

; 101  :                 return;

  000ba	eb 38		 jmp	 SHORT $LN1@sentry
$LN3@sentry:

; 102  :             }
; 103  : 
; 104  :             _Tied->flush();

  000bc	48 8b 4d 08	 mov	 rcx, QWORD PTR _Tied$[rbp]
  000c0	ff 15 00 00 00
	00		 call	 QWORD PTR __imp_?flush@?$basic_ostream@DU?$char_traits@D@std@@@std@@QEAAAEAV12@XZ

; 105  :             _Ok = _Ostr.good(); // store test only after flushing tie

  000c6	48 8b 85 08 01
	00 00		 mov	 rax, QWORD PTR _Ostr$[rbp]
  000cd	48 8b 00	 mov	 rax, QWORD PTR [rax]
  000d0	48 63 40 04	 movsxd	 rax, DWORD PTR [rax+4]
  000d4	48 8b 8d 08 01
	00 00		 mov	 rcx, QWORD PTR _Ostr$[rbp]
  000db	48 03 c8	 add	 rcx, rax
  000de	48 8b c1	 mov	 rax, rcx
  000e1	48 8b c8	 mov	 rcx, rax
  000e4	ff 15 00 00 00
	00		 call	 QWORD PTR __imp_?good@ios_base@std@@QEBA_NXZ
  000ea	48 8b 8d 00 01
	00 00		 mov	 rcx, QWORD PTR this$[rbp]
  000f1	88 41 08	 mov	 BYTE PTR [rcx+8], al
$LN1@sentry:

; 106  :         }

  000f4	48 8b 85 00 01
	00 00		 mov	 rax, QWORD PTR this$[rbp]
  000fb	48 8d a5 e8 00
	00 00		 lea	 rsp, QWORD PTR [rbp+232]
  00102	5f		 pop	 rdi
  00103	5d		 pop	 rbp
  00104	c3		 ret	 0
??0sentry@?$basic_ostream@DU?$char_traits@D@std@@@std@@QEAA@AEAV12@@Z ENDP ; std::basic_ostream<char,std::char_traits<char> >::sentry::sentry
_TEXT	ENDS
;	COMDAT text$x
text$x	SEGMENT
_Tied$ = 8
this$ = 256
_Ostr$ = 264
?dtor$0@?0???0sentry@?$basic_ostream@DU?$char_traits@D@std@@@std@@QEAA@AEAV12@@Z@4HA PROC ; `std::basic_ostream<char,std::char_traits<char> >::sentry::sentry'::`1'::dtor$0
  00000	48 89 4c 24 08	 mov	 QWORD PTR [rsp+8], rcx
  00005	48 89 54 24 10	 mov	 QWORD PTR [rsp+16], rdx
  0000a	55		 push	 rbp
  0000b	57		 push	 rdi
  0000c	48 83 ec 28	 sub	 rsp, 40			; 00000028H
  00010	48 8d 6a 20	 lea	 rbp, QWORD PTR [rdx+32]
  00014	48 8b 8d 00 01
	00 00		 mov	 rcx, QWORD PTR this$[rbp]
  0001b	e8 00 00 00 00	 call	 ??1_Sentry_base@?$basic_ostream@DU?$char_traits@D@std@@@std@@QEAA@XZ ; std::basic_ostream<char,std::char_traits<char> >::_Sentry_base::~_Sentry_base
  00020	48 83 c4 28	 add	 rsp, 40			; 00000028H
  00024	5f		 pop	 rdi
  00025	5d		 pop	 rbp
  00026	c3		 ret	 0
?dtor$0@?0???0sentry@?$basic_ostream@DU?$char_traits@D@std@@@std@@QEAA@AEAV12@@Z@4HA ENDP ; `std::basic_ostream<char,std::char_traits<char> >::sentry::sentry'::`1'::dtor$0
text$x	ENDS
; Function compile flags: /Odtp /RTCsu /ZI
;	COMDAT text$x
text$x	SEGMENT
_Tied$ = 8
this$ = 256
_Ostr$ = 264
?dtor$0@?0???0sentry@?$basic_ostream@DU?$char_traits@D@std@@@std@@QEAA@AEAV12@@Z@4HA PROC ; `std::basic_ostream<char,std::char_traits<char> >::sentry::sentry'::`1'::dtor$0
  00000	48 89 4c 24 08	 mov	 QWORD PTR [rsp+8], rcx
  00005	48 89 54 24 10	 mov	 QWORD PTR [rsp+16], rdx
  0000a	55		 push	 rbp
  0000b	57		 push	 rdi
  0000c	48 83 ec 28	 sub	 rsp, 40			; 00000028H
  00010	48 8d 6a 20	 lea	 rbp, QWORD PTR [rdx+32]
  00014	48 8b 8d 00 01
	00 00		 mov	 rcx, QWORD PTR this$[rbp]
  0001b	e8 00 00 00 00	 call	 ??1_Sentry_base@?$basic_ostream@DU?$char_traits@D@std@@@std@@QEAA@XZ ; std::basic_ostream<char,std::char_traits<char> >::_Sentry_base::~_Sentry_base
  00020	48 83 c4 28	 add	 rsp, 40			; 00000028H
  00024	5f		 pop	 rdi
  00025	5d		 pop	 rbp
  00026	c3		 ret	 0
?dtor$0@?0???0sentry@?$basic_ostream@DU?$char_traits@D@std@@@std@@QEAA@AEAV12@@Z@4HA ENDP ; `std::basic_ostream<char,std::char_traits<char> >::sentry::sentry'::`1'::dtor$0
text$x	ENDS
; Function compile flags: /Odtp /RTCsu /ZI
; File C:\Program Files (x86)\Microsoft Visual Studio\2019\Community\VC\Tools\MSVC\14.29.30133\include\ostream
;	COMDAT ??1_Sentry_base@?$basic_ostream@DU?$char_traits@D@std@@@std@@QEAA@XZ
_TEXT	SEGMENT
_Rdbuf$ = 8
tv72 = 216
this$ = 256
??1_Sentry_base@?$basic_ostream@DU?$char_traits@D@std@@@std@@QEAA@XZ PROC ; std::basic_ostream<char,std::char_traits<char> >::_Sentry_base::~_Sentry_base, COMDAT

; 78   :         __CLR_OR_THIS_CALL ~_Sentry_base() noexcept { // destroy after unlocking

$LN4:
  00000	48 89 4c 24 08	 mov	 QWORD PTR [rsp+8], rcx
  00005	55		 push	 rbp
  00006	57		 push	 rdi
  00007	48 81 ec 08 01
	00 00		 sub	 rsp, 264		; 00000108H
  0000e	48 8d 6c 24 20	 lea	 rbp, QWORD PTR [rsp+32]
  00013	48 8d 0d 00 00
	00 00		 lea	 rcx, OFFSET FLAT:__C12F3EA4_ostream
  0001a	e8 00 00 00 00	 call	 __CheckForDebuggerJustMyCode

; 79   :             const auto _Rdbuf = _Myostr.rdbuf();

  0001f	48 8b 85 00 01
	00 00		 mov	 rax, QWORD PTR this$[rbp]
  00026	48 8b 00	 mov	 rax, QWORD PTR [rax]
  00029	48 89 85 d8 00
	00 00		 mov	 QWORD PTR tv72[rbp], rax
  00030	48 8b 85 d8 00
	00 00		 mov	 rax, QWORD PTR tv72[rbp]
  00037	48 8b 00	 mov	 rax, QWORD PTR [rax]
  0003a	48 63 40 04	 movsxd	 rax, DWORD PTR [rax+4]
  0003e	48 8b 8d d8 00
	00 00		 mov	 rcx, QWORD PTR tv72[rbp]
  00045	48 03 c8	 add	 rcx, rax
  00048	48 8b c1	 mov	 rax, rcx
  0004b	48 8b c8	 mov	 rcx, rax
  0004e	ff 15 00 00 00
	00		 call	 QWORD PTR __imp_?rdbuf@?$basic_ios@DU?$char_traits@D@std@@@std@@QEBAPEAV?$basic_streambuf@DU?$char_traits@D@std@@@2@XZ
  00054	48 89 45 08	 mov	 QWORD PTR _Rdbuf$[rbp], rax

; 80   :             if (_Rdbuf) {

  00058	48 83 7d 08 00	 cmp	 QWORD PTR _Rdbuf$[rbp], 0
  0005d	74 0f		 je	 SHORT $LN2@Sentry_bas

; 81   :                 _Rdbuf->_Unlock();

  0005f	48 8b 45 08	 mov	 rax, QWORD PTR _Rdbuf$[rbp]
  00063	48 8b 00	 mov	 rax, QWORD PTR [rax]
  00066	48 8b 4d 08	 mov	 rcx, QWORD PTR _Rdbuf$[rbp]
  0006a	ff 50 10	 call	 QWORD PTR [rax+16]
  0006d	90		 npad	 1
$LN2@Sentry_bas:

; 82   :             }
; 83   :         }

  0006e	48 8d a5 e8 00
	00 00		 lea	 rsp, QWORD PTR [rbp+232]
  00075	5f		 pop	 rdi
  00076	5d		 pop	 rbp
  00077	c3		 ret	 0
??1_Sentry_base@?$basic_ostream@DU?$char_traits@D@std@@@std@@QEAA@XZ ENDP ; std::basic_ostream<char,std::char_traits<char> >::_Sentry_base::~_Sentry_base
_TEXT	ENDS
; Function compile flags: /Odtp /RTCsu /ZI
; File C:\Program Files (x86)\Microsoft Visual Studio\2019\Community\VC\Tools\MSVC\14.29.30133\include\ostream
;	COMDAT ??0_Sentry_base@?$basic_ostream@DU?$char_traits@D@std@@@std@@QEAA@AEAV12@@Z
_TEXT	SEGMENT
_Rdbuf$ = 8
tv73 = 216
this$ = 256
_Ostr$ = 264
??0_Sentry_base@?$basic_ostream@DU?$char_traits@D@std@@@std@@QEAA@AEAV12@@Z PROC ; std::basic_ostream<char,std::char_traits<char> >::_Sentry_base::_Sentry_base, COMDAT

; 71   :         __CLR_OR_THIS_CALL _Sentry_base(basic_ostream& _Ostr) : _Myostr(_Ostr) { // lock the stream buffer, if there

$LN4:
  00000	48 89 54 24 10	 mov	 QWORD PTR [rsp+16], rdx
  00005	48 89 4c 24 08	 mov	 QWORD PTR [rsp+8], rcx
  0000a	55		 push	 rbp
  0000b	57		 push	 rdi
  0000c	48 81 ec 08 01
	00 00		 sub	 rsp, 264		; 00000108H
  00013	48 8d 6c 24 20	 lea	 rbp, QWORD PTR [rsp+32]
  00018	48 8d 0d 00 00
	00 00		 lea	 rcx, OFFSET FLAT:__C12F3EA4_ostream
  0001f	e8 00 00 00 00	 call	 __CheckForDebuggerJustMyCode
  00024	48 8b 85 00 01
	00 00		 mov	 rax, QWORD PTR this$[rbp]
  0002b	48 8b 8d 08 01
	00 00		 mov	 rcx, QWORD PTR _Ostr$[rbp]
  00032	48 89 08	 mov	 QWORD PTR [rax], rcx

; 72   :             const auto _Rdbuf = _Myostr.rdbuf();

  00035	48 8b 85 00 01
	00 00		 mov	 rax, QWORD PTR this$[rbp]
  0003c	48 8b 00	 mov	 rax, QWORD PTR [rax]
  0003f	48 89 85 d8 00
	00 00		 mov	 QWORD PTR tv73[rbp], rax
  00046	48 8b 85 d8 00
	00 00		 mov	 rax, QWORD PTR tv73[rbp]
  0004d	48 8b 00	 mov	 rax, QWORD PTR [rax]
  00050	48 63 40 04	 movsxd	 rax, DWORD PTR [rax+4]
  00054	48 8b 8d d8 00
	00 00		 mov	 rcx, QWORD PTR tv73[rbp]
  0005b	48 03 c8	 add	 rcx, rax
  0005e	48 8b c1	 mov	 rax, rcx
  00061	48 8b c8	 mov	 rcx, rax
  00064	ff 15 00 00 00
	00		 call	 QWORD PTR __imp_?rdbuf@?$basic_ios@DU?$char_traits@D@std@@@std@@QEBAPEAV?$basic_streambuf@DU?$char_traits@D@std@@@2@XZ
  0006a	48 89 45 08	 mov	 QWORD PTR _Rdbuf$[rbp], rax

; 73   :             if (_Rdbuf) {

  0006e	48 83 7d 08 00	 cmp	 QWORD PTR _Rdbuf$[rbp], 0
  00073	74 0e		 je	 SHORT $LN2@Sentry_bas

; 74   :                 _Rdbuf->_Lock();

  00075	48 8b 45 08	 mov	 rax, QWORD PTR _Rdbuf$[rbp]
  00079	48 8b 00	 mov	 rax, QWORD PTR [rax]
  0007c	48 8b 4d 08	 mov	 rcx, QWORD PTR _Rdbuf$[rbp]
  00080	ff 50 08	 call	 QWORD PTR [rax+8]
$LN2@Sentry_bas:

; 75   :             }
; 76   :         }

  00083	48 8b 85 00 01
	00 00		 mov	 rax, QWORD PTR this$[rbp]
  0008a	48 8d a5 e8 00
	00 00		 lea	 rsp, QWORD PTR [rbp+232]
  00091	5f		 pop	 rdi
  00092	5d		 pop	 rbp
  00093	c3		 ret	 0
??0_Sentry_base@?$basic_ostream@DU?$char_traits@D@std@@@std@@QEAA@AEAV12@@Z ENDP ; std::basic_ostream<char,std::char_traits<char> >::_Sentry_base::_Sentry_base
_TEXT	ENDS
; Function compile flags: /Odtp /RTCsu /ZI
; File C:\Program Files (x86)\Microsoft Visual Studio\2019\Community\VC\Tools\MSVC\14.29.30133\include\ostream
;	COMDAT ??$endl@DU?$char_traits@D@std@@@std@@YAAEAV?$basic_ostream@DU?$char_traits@D@std@@@0@AEAV10@@Z
_TEXT	SEGMENT
_Ostr$ = 224
??$endl@DU?$char_traits@D@std@@@std@@YAAEAV?$basic_ostream@DU?$char_traits@D@std@@@0@AEAV10@@Z PROC ; std::endl<char,std::char_traits<char> >, COMDAT

; 978  :     basic_ostream<_Elem, _Traits>& _Ostr) { // insert newline and flush stream

$LN3:
  00000	48 89 4c 24 08	 mov	 QWORD PTR [rsp+8], rcx
  00005	55		 push	 rbp
  00006	57		 push	 rdi
  00007	48 81 ec e8 00
	00 00		 sub	 rsp, 232		; 000000e8H
  0000e	48 8d 6c 24 20	 lea	 rbp, QWORD PTR [rsp+32]
  00013	48 8d 0d 00 00
	00 00		 lea	 rcx, OFFSET FLAT:__C12F3EA4_ostream
  0001a	e8 00 00 00 00	 call	 __CheckForDebuggerJustMyCode

; 979  :     _Ostr.put(_Ostr.widen('\n'));

  0001f	48 8b 85 e0 00
	00 00		 mov	 rax, QWORD PTR _Ostr$[rbp]
  00026	48 8b 00	 mov	 rax, QWORD PTR [rax]
  00029	48 63 40 04	 movsxd	 rax, DWORD PTR [rax+4]
  0002d	48 8b 8d e0 00
	00 00		 mov	 rcx, QWORD PTR _Ostr$[rbp]
  00034	48 03 c8	 add	 rcx, rax
  00037	48 8b c1	 mov	 rax, rcx
  0003a	b2 0a		 mov	 dl, 10
  0003c	48 8b c8	 mov	 rcx, rax
  0003f	ff 15 00 00 00
	00		 call	 QWORD PTR __imp_?widen@?$basic_ios@DU?$char_traits@D@std@@@std@@QEBADD@Z
  00045	0f b6 d0	 movzx	 edx, al
  00048	48 8b 8d e0 00
	00 00		 mov	 rcx, QWORD PTR _Ostr$[rbp]
  0004f	ff 15 00 00 00
	00		 call	 QWORD PTR __imp_?put@?$basic_ostream@DU?$char_traits@D@std@@@std@@QEAAAEAV12@D@Z

; 980  :     _Ostr.flush();

  00055	48 8b 8d e0 00
	00 00		 mov	 rcx, QWORD PTR _Ostr$[rbp]
  0005c	ff 15 00 00 00
	00		 call	 QWORD PTR __imp_?flush@?$basic_ostream@DU?$char_traits@D@std@@@std@@QEAAAEAV12@XZ

; 981  :     return _Ostr;

  00062	48 8b 85 e0 00
	00 00		 mov	 rax, QWORD PTR _Ostr$[rbp]

; 982  : }

  00069	48 8d a5 c8 00
	00 00		 lea	 rsp, QWORD PTR [rbp+200]
  00070	5f		 pop	 rdi
  00071	5d		 pop	 rbp
  00072	c3		 ret	 0
??$endl@DU?$char_traits@D@std@@@std@@YAAEAV?$basic_ostream@DU?$char_traits@D@std@@@0@AEAV10@@Z ENDP ; std::endl<char,std::char_traits<char> >
_TEXT	ENDS
; Function compile flags: /Odtp /RTCsu /ZI
; File C:\Program Files (x86)\Microsoft Visual Studio\2019\Community\VC\Tools\MSVC\14.29.30133\include\iomanip
;	COMDAT ??$?6DU?$char_traits@D@std@@_J@std@@YAAEAV?$basic_ostream@DU?$char_traits@D@std@@@0@AEAV10@AEBU?$_Smanip@_J@0@@Z
_TEXT	SEGMENT
_Ostr$ = 224
_Manip$ = 232
??$?6DU?$char_traits@D@std@@_J@std@@YAAEAV?$basic_ostream@DU?$char_traits@D@std@@@0@AEAV10@AEBU?$_Smanip@_J@0@@Z PROC ; std::operator<<<char,std::char_traits<char>,__int64>, COMDAT

; 423  :     const _Smanip<_Arg>& _Manip) { // insert by calling function with output stream and argument

$LN3:
  00000	48 89 54 24 10	 mov	 QWORD PTR [rsp+16], rdx
  00005	48 89 4c 24 08	 mov	 QWORD PTR [rsp+8], rcx
  0000a	55		 push	 rbp
  0000b	57		 push	 rdi
  0000c	48 81 ec e8 00
	00 00		 sub	 rsp, 232		; 000000e8H
  00013	48 8d 6c 24 20	 lea	 rbp, QWORD PTR [rsp+32]
  00018	48 8d 0d 00 00
	00 00		 lea	 rcx, OFFSET FLAT:__5E3DCDCC_iomanip
  0001f	e8 00 00 00 00	 call	 __CheckForDebuggerJustMyCode

; 424  :     (*_Manip._Pfun)(_Ostr, _Manip._Manarg);

  00024	48 8b 85 e0 00
	00 00		 mov	 rax, QWORD PTR _Ostr$[rbp]
  0002b	48 8b 00	 mov	 rax, QWORD PTR [rax]
  0002e	48 63 40 04	 movsxd	 rax, DWORD PTR [rax+4]
  00032	48 8b 8d e0 00
	00 00		 mov	 rcx, QWORD PTR _Ostr$[rbp]
  00039	48 03 c8	 add	 rcx, rax
  0003c	48 8b c1	 mov	 rax, rcx
  0003f	48 8b 8d e8 00
	00 00		 mov	 rcx, QWORD PTR _Manip$[rbp]
  00046	48 8b 51 08	 mov	 rdx, QWORD PTR [rcx+8]
  0004a	48 8b c8	 mov	 rcx, rax
  0004d	48 8b 85 e8 00
	00 00		 mov	 rax, QWORD PTR _Manip$[rbp]
  00054	ff 10		 call	 QWORD PTR [rax]

; 425  :     return _Ostr;

  00056	48 8b 85 e0 00
	00 00		 mov	 rax, QWORD PTR _Ostr$[rbp]

; 426  : }

  0005d	48 8d a5 c8 00
	00 00		 lea	 rsp, QWORD PTR [rbp+200]
  00064	5f		 pop	 rdi
  00065	5d		 pop	 rbp
  00066	c3		 ret	 0
??$?6DU?$char_traits@D@std@@_J@std@@YAAEAV?$basic_ostream@DU?$char_traits@D@std@@@0@AEAV10@AEBU?$_Smanip@_J@0@@Z ENDP ; std::operator<<<char,std::char_traits<char>,__int64>
_TEXT	ENDS
; Function compile flags: /Odtp /RTCsu /ZI
; File C:\Program Files (x86)\Microsoft Visual Studio\2019\Community\VC\Tools\MSVC\14.29.30133\include\ostream
;	COMDAT ??$?6U?$char_traits@D@std@@@std@@YAAEAV?$basic_ostream@DU?$char_traits@D@std@@@0@AEAV10@PEBD@Z
_TEXT	SEGMENT
_State$ = 4
_Count$ = 40
_Pad$ = 72
_Ok$ = 104
$T4 = 340
$T5 = 372
$T6 = 404
$T7 = 436
$T8 = 472
tv300 = 484
tv295 = 484
tv139 = 484
tv301 = 488
tv298 = 488
tv296 = 488
tv137 = 488
tv302 = 496
tv299 = 496
tv297 = 496
__$ArrayPad$ = 504
_Ostr$ = 544
_Val$ = 552
??$?6U?$char_traits@D@std@@@std@@YAAEAV?$basic_ostream@DU?$char_traits@D@std@@@0@AEAV10@PEBD@Z PROC ; std::operator<<<std::char_traits<char> >, COMDAT

; 734  :     const char* _Val) { // insert NTBS into char stream

$LN25:
  00000	48 89 54 24 10	 mov	 QWORD PTR [rsp+16], rdx
  00005	48 89 4c 24 08	 mov	 QWORD PTR [rsp+8], rcx
  0000a	55		 push	 rbp
  0000b	57		 push	 rdi
  0000c	48 81 ec 28 02
	00 00		 sub	 rsp, 552		; 00000228H
  00013	48 8d 6c 24 20	 lea	 rbp, QWORD PTR [rsp+32]
  00018	48 8d 7c 24 20	 lea	 rdi, QWORD PTR [rsp+32]
  0001d	b9 52 00 00 00	 mov	 ecx, 82			; 00000052H
  00022	b8 cc cc cc cc	 mov	 eax, -858993460		; ccccccccH
  00027	f3 ab		 rep stosd
  00029	48 8b 8c 24 48
	02 00 00	 mov	 rcx, QWORD PTR [rsp+584]
  00031	48 8b 05 00 00
	00 00		 mov	 rax, QWORD PTR __security_cookie
  00038	48 33 c5	 xor	 rax, rbp
  0003b	48 89 85 f8 01
	00 00		 mov	 QWORD PTR __$ArrayPad$[rbp], rax
  00042	48 8d 0d 00 00
	00 00		 lea	 rcx, OFFSET FLAT:__C12F3EA4_ostream
  00049	e8 00 00 00 00	 call	 __CheckForDebuggerJustMyCode

; 735  :     using _Elem = char;
; 736  :     using _Myos = basic_ostream<_Elem, _Traits>;
; 737  : 
; 738  :     ios_base::iostate _State = ios_base::goodbit;

  0004e	c7 45 04 00 00
	00 00		 mov	 DWORD PTR _State$[rbp], 0

; 739  :     streamsize _Count        = static_cast<streamsize>(_Traits::length(_Val));

  00055	48 8b 8d 28 02
	00 00		 mov	 rcx, QWORD PTR _Val$[rbp]
  0005c	e8 00 00 00 00	 call	 ?length@?$_Narrow_char_traits@DH@std@@SA_KQEBD@Z ; std::_Narrow_char_traits<char,int>::length
  00061	48 89 45 28	 mov	 QWORD PTR _Count$[rbp], rax

; 740  :     streamsize _Pad          = _Ostr.width() <= 0 || _Ostr.width() <= _Count ? 0 : _Ostr.width() - _Count;

  00065	48 8b 85 20 02
	00 00		 mov	 rax, QWORD PTR _Ostr$[rbp]
  0006c	48 8b 00	 mov	 rax, QWORD PTR [rax]
  0006f	48 63 40 04	 movsxd	 rax, DWORD PTR [rax+4]
  00073	48 8b 8d 20 02
	00 00		 mov	 rcx, QWORD PTR _Ostr$[rbp]
  0007a	48 03 c8	 add	 rcx, rax
  0007d	48 8b c1	 mov	 rax, rcx
  00080	48 8b c8	 mov	 rcx, rax
  00083	ff 15 00 00 00
	00		 call	 QWORD PTR __imp_?width@ios_base@std@@QEBA_JXZ
  00089	48 85 c0	 test	 rax, rax
  0008c	7e 5b		 jle	 SHORT $LN17@operator
  0008e	48 8b 85 20 02
	00 00		 mov	 rax, QWORD PTR _Ostr$[rbp]
  00095	48 8b 00	 mov	 rax, QWORD PTR [rax]
  00098	48 63 40 04	 movsxd	 rax, DWORD PTR [rax+4]
  0009c	48 8b 8d 20 02
	00 00		 mov	 rcx, QWORD PTR _Ostr$[rbp]
  000a3	48 03 c8	 add	 rcx, rax
  000a6	48 8b c1	 mov	 rax, rcx
  000a9	48 8b c8	 mov	 rcx, rax
  000ac	ff 15 00 00 00
	00		 call	 QWORD PTR __imp_?width@ios_base@std@@QEBA_JXZ
  000b2	48 3b 45 28	 cmp	 rax, QWORD PTR _Count$[rbp]
  000b6	7e 31		 jle	 SHORT $LN17@operator
  000b8	48 8b 85 20 02
	00 00		 mov	 rax, QWORD PTR _Ostr$[rbp]
  000bf	48 8b 00	 mov	 rax, QWORD PTR [rax]
  000c2	48 63 40 04	 movsxd	 rax, DWORD PTR [rax+4]
  000c6	48 8b 8d 20 02
	00 00		 mov	 rcx, QWORD PTR _Ostr$[rbp]
  000cd	48 03 c8	 add	 rcx, rax
  000d0	48 8b c1	 mov	 rax, rcx
  000d3	48 8b c8	 mov	 rcx, rax
  000d6	ff 15 00 00 00
	00		 call	 QWORD PTR __imp_?width@ios_base@std@@QEBA_JXZ
  000dc	48 2b 45 28	 sub	 rax, QWORD PTR _Count$[rbp]
  000e0	48 89 85 e8 01
	00 00		 mov	 QWORD PTR tv137[rbp], rax
  000e7	eb 0b		 jmp	 SHORT $LN18@operator
$LN17@operator:
  000e9	48 c7 85 e8 01
	00 00 00 00 00
	00		 mov	 QWORD PTR tv137[rbp], 0
$LN18@operator:
  000f4	48 8b 85 e8 01
	00 00		 mov	 rax, QWORD PTR tv137[rbp]
  000fb	48 89 45 48	 mov	 QWORD PTR _Pad$[rbp], rax

; 741  :     const typename _Myos::sentry _Ok(_Ostr);

  000ff	48 8b 95 20 02
	00 00		 mov	 rdx, QWORD PTR _Ostr$[rbp]
  00106	48 8d 4d 68	 lea	 rcx, QWORD PTR _Ok$[rbp]
  0010a	e8 00 00 00 00	 call	 ??0sentry@?$basic_ostream@DU?$char_traits@D@std@@@std@@QEAA@AEAV12@@Z ; std::basic_ostream<char,std::char_traits<char> >::sentry::sentry
  0010f	90		 npad	 1

; 742  : 
; 743  :     if (!_Ok) {

  00110	48 8d 4d 68	 lea	 rcx, QWORD PTR _Ok$[rbp]
  00114	e8 00 00 00 00	 call	 ??Bsentry@?$basic_ostream@DU?$char_traits@D@std@@@std@@QEBA_NXZ ; std::basic_ostream<char,std::char_traits<char> >::sentry::operator bool
  00119	0f b6 c0	 movzx	 eax, al
  0011c	85 c0		 test	 eax, eax
  0011e	75 0e		 jne	 SHORT $LN8@operator

; 744  :         _State |= ios_base::badbit;

  00120	8b 45 04	 mov	 eax, DWORD PTR _State$[rbp]
  00123	83 c8 04	 or	 eax, 4
  00126	89 45 04	 mov	 DWORD PTR _State$[rbp], eax

; 745  :     } else { // state okay, insert

  00129	e9 67 02 00 00	 jmp	 $LN9@operator
$LN8@operator:

; 746  :         _TRY_IO_BEGIN
; 747  :         if ((_Ostr.flags() & ios_base::adjustfield) != ios_base::left) {

  0012e	48 8b 85 20 02
	00 00		 mov	 rax, QWORD PTR _Ostr$[rbp]
  00135	48 8b 00	 mov	 rax, QWORD PTR [rax]
  00138	48 63 40 04	 movsxd	 rax, DWORD PTR [rax+4]
  0013c	48 8b 8d 20 02
	00 00		 mov	 rcx, QWORD PTR _Ostr$[rbp]
  00143	48 03 c8	 add	 rcx, rax
  00146	48 8b c1	 mov	 rax, rcx
  00149	48 8b c8	 mov	 rcx, rax
  0014c	ff 15 00 00 00
	00		 call	 QWORD PTR __imp_?flags@ios_base@std@@QEBAHXZ
  00152	89 85 e4 01 00
	00		 mov	 DWORD PTR tv139[rbp], eax
  00158	8b 85 e4 01 00
	00		 mov	 eax, DWORD PTR tv139[rbp]
  0015e	25 c0 01 00 00	 and	 eax, 448		; 000001c0H
  00163	83 f8 40	 cmp	 eax, 64			; 00000040H
  00166	0f 84 c8 00 00
	00		 je	 $LN11@operator

; 748  :             for (; 0 < _Pad; --_Pad) { // pad on left

  0016c	eb 0b		 jmp	 SHORT $LN4@operator
$LN2@operator:
  0016e	48 8b 45 48	 mov	 rax, QWORD PTR _Pad$[rbp]
  00172	48 ff c8	 dec	 rax
  00175	48 89 45 48	 mov	 QWORD PTR _Pad$[rbp], rax
$LN4@operator:
  00179	48 83 7d 48 00	 cmp	 QWORD PTR _Pad$[rbp], 0
  0017e	0f 8e b0 00 00
	00		 jle	 $LN11@operator

; 749  :                 if (_Traits::eq_int_type(_Traits::eof(), _Ostr.rdbuf()->sputc(_Ostr.fill()))) {

  00184	48 8b 85 20 02
	00 00		 mov	 rax, QWORD PTR _Ostr$[rbp]
  0018b	48 8b 00	 mov	 rax, QWORD PTR [rax]
  0018e	48 63 40 04	 movsxd	 rax, DWORD PTR [rax+4]
  00192	48 8b 8d 20 02
	00 00		 mov	 rcx, QWORD PTR _Ostr$[rbp]
  00199	48 03 c8	 add	 rcx, rax
  0019c	48 8b c1	 mov	 rax, rcx
  0019f	48 8b c8	 mov	 rcx, rax
  001a2	ff 15 00 00 00
	00		 call	 QWORD PTR __imp_?fill@?$basic_ios@DU?$char_traits@D@std@@@std@@QEBADXZ
  001a8	88 85 e4 01 00
	00		 mov	 BYTE PTR tv295[rbp], al
  001ae	48 8b 85 20 02
	00 00		 mov	 rax, QWORD PTR _Ostr$[rbp]
  001b5	48 8b 00	 mov	 rax, QWORD PTR [rax]
  001b8	48 63 40 04	 movsxd	 rax, DWORD PTR [rax+4]
  001bc	48 8b 8d 20 02
	00 00		 mov	 rcx, QWORD PTR _Ostr$[rbp]
  001c3	48 03 c8	 add	 rcx, rax
  001c6	48 8b c1	 mov	 rax, rcx
  001c9	48 8b c8	 mov	 rcx, rax
  001cc	ff 15 00 00 00
	00		 call	 QWORD PTR __imp_?rdbuf@?$basic_ios@DU?$char_traits@D@std@@@std@@QEBAPEAV?$basic_streambuf@DU?$char_traits@D@std@@@2@XZ
  001d2	48 89 85 e8 01
	00 00		 mov	 QWORD PTR tv296[rbp], rax
  001d9	0f b6 95 e4 01
	00 00		 movzx	 edx, BYTE PTR tv295[rbp]
  001e0	48 8b 8d e8 01
	00 00		 mov	 rcx, QWORD PTR tv296[rbp]
  001e7	ff 15 00 00 00
	00		 call	 QWORD PTR __imp_?sputc@?$basic_streambuf@DU?$char_traits@D@std@@@std@@QEAAHD@Z
  001ed	89 85 f0 01 00
	00		 mov	 DWORD PTR tv297[rbp], eax
  001f3	8b 85 f0 01 00
	00		 mov	 eax, DWORD PTR tv297[rbp]
  001f9	89 85 54 01 00
	00		 mov	 DWORD PTR $T4[rbp], eax
  001ff	e8 00 00 00 00	 call	 ?eof@?$_Narrow_char_traits@DH@std@@SAHXZ ; std::_Narrow_char_traits<char,int>::eof
  00204	89 85 74 01 00
	00		 mov	 DWORD PTR $T5[rbp], eax
  0020a	48 8d 95 54 01
	00 00		 lea	 rdx, QWORD PTR $T4[rbp]
  00211	48 8d 8d 74 01
	00 00		 lea	 rcx, QWORD PTR $T5[rbp]
  00218	e8 00 00 00 00	 call	 ?eq_int_type@?$_Narrow_char_traits@DH@std@@SA_NAEBH0@Z ; std::_Narrow_char_traits<char,int>::eq_int_type
  0021d	0f b6 c0	 movzx	 eax, al
  00220	85 c0		 test	 eax, eax
  00222	74 0b		 je	 SHORT $LN12@operator

; 750  :                     _State |= ios_base::badbit; // insertion failed, quit

  00224	8b 45 04	 mov	 eax, DWORD PTR _State$[rbp]
  00227	83 c8 04	 or	 eax, 4
  0022a	89 45 04	 mov	 DWORD PTR _State$[rbp], eax

; 751  :                     break;

  0022d	eb 05		 jmp	 SHORT $LN11@operator
$LN12@operator:

; 752  :                 }
; 753  :             }

  0022f	e9 3a ff ff ff	 jmp	 $LN2@operator
$LN11@operator:

; 754  :         }
; 755  : 
; 756  :         if (_State == ios_base::goodbit && _Ostr.rdbuf()->sputn(_Val, _Count) != _Count) {

  00234	83 7d 04 00	 cmp	 DWORD PTR _State$[rbp], 0
  00238	75 60		 jne	 SHORT $LN13@operator
  0023a	48 8b 85 20 02
	00 00		 mov	 rax, QWORD PTR _Ostr$[rbp]
  00241	48 8b 00	 mov	 rax, QWORD PTR [rax]
  00244	48 63 40 04	 movsxd	 rax, DWORD PTR [rax+4]
  00248	48 8b 8d 20 02
	00 00		 mov	 rcx, QWORD PTR _Ostr$[rbp]
  0024f	48 03 c8	 add	 rcx, rax
  00252	48 8b c1	 mov	 rax, rcx
  00255	48 8b c8	 mov	 rcx, rax
  00258	ff 15 00 00 00
	00		 call	 QWORD PTR __imp_?rdbuf@?$basic_ios@DU?$char_traits@D@std@@@std@@QEBAPEAV?$basic_streambuf@DU?$char_traits@D@std@@@2@XZ
  0025e	48 89 85 e8 01
	00 00		 mov	 QWORD PTR tv298[rbp], rax
  00265	4c 8b 45 28	 mov	 r8, QWORD PTR _Count$[rbp]
  00269	48 8b 95 28 02
	00 00		 mov	 rdx, QWORD PTR _Val$[rbp]
  00270	48 8b 8d e8 01
	00 00		 mov	 rcx, QWORD PTR tv298[rbp]
  00277	ff 15 00 00 00
	00		 call	 QWORD PTR __imp_?sputn@?$basic_streambuf@DU?$char_traits@D@std@@@std@@QEAA_JPEBD_J@Z
  0027d	48 89 85 f0 01
	00 00		 mov	 QWORD PTR tv299[rbp], rax
  00284	48 8b 45 28	 mov	 rax, QWORD PTR _Count$[rbp]
  00288	48 39 85 f0 01
	00 00		 cmp	 QWORD PTR tv299[rbp], rax
  0028f	74 09		 je	 SHORT $LN13@operator

; 757  :             _State |= ios_base::badbit;

  00291	8b 45 04	 mov	 eax, DWORD PTR _State$[rbp]
  00294	83 c8 04	 or	 eax, 4
  00297	89 45 04	 mov	 DWORD PTR _State$[rbp], eax
$LN13@operator:

; 758  :         }
; 759  : 
; 760  :         if (_State == ios_base::goodbit) {

  0029a	83 7d 04 00	 cmp	 DWORD PTR _State$[rbp], 0
  0029e	0f 85 c8 00 00
	00		 jne	 $LN14@operator

; 761  :             for (; 0 < _Pad; --_Pad) { // pad on right

  002a4	eb 0b		 jmp	 SHORT $LN7@operator
$LN5@operator:
  002a6	48 8b 45 48	 mov	 rax, QWORD PTR _Pad$[rbp]
  002aa	48 ff c8	 dec	 rax
  002ad	48 89 45 48	 mov	 QWORD PTR _Pad$[rbp], rax
$LN7@operator:
  002b1	48 83 7d 48 00	 cmp	 QWORD PTR _Pad$[rbp], 0
  002b6	0f 8e b0 00 00
	00		 jle	 $LN14@operator

; 762  :                 if (_Traits::eq_int_type(_Traits::eof(), _Ostr.rdbuf()->sputc(_Ostr.fill()))) {

  002bc	48 8b 85 20 02
	00 00		 mov	 rax, QWORD PTR _Ostr$[rbp]
  002c3	48 8b 00	 mov	 rax, QWORD PTR [rax]
  002c6	48 63 40 04	 movsxd	 rax, DWORD PTR [rax+4]
  002ca	48 8b 8d 20 02
	00 00		 mov	 rcx, QWORD PTR _Ostr$[rbp]
  002d1	48 03 c8	 add	 rcx, rax
  002d4	48 8b c1	 mov	 rax, rcx
  002d7	48 8b c8	 mov	 rcx, rax
  002da	ff 15 00 00 00
	00		 call	 QWORD PTR __imp_?fill@?$basic_ios@DU?$char_traits@D@std@@@std@@QEBADXZ
  002e0	88 85 e4 01 00
	00		 mov	 BYTE PTR tv300[rbp], al
  002e6	48 8b 85 20 02
	00 00		 mov	 rax, QWORD PTR _Ostr$[rbp]
  002ed	48 8b 00	 mov	 rax, QWORD PTR [rax]
  002f0	48 63 40 04	 movsxd	 rax, DWORD PTR [rax+4]
  002f4	48 8b 8d 20 02
	00 00		 mov	 rcx, QWORD PTR _Ostr$[rbp]
  002fb	48 03 c8	 add	 rcx, rax
  002fe	48 8b c1	 mov	 rax, rcx
  00301	48 8b c8	 mov	 rcx, rax
  00304	ff 15 00 00 00
	00		 call	 QWORD PTR __imp_?rdbuf@?$basic_ios@DU?$char_traits@D@std@@@std@@QEBAPEAV?$basic_streambuf@DU?$char_traits@D@std@@@2@XZ
  0030a	48 89 85 e8 01
	00 00		 mov	 QWORD PTR tv301[rbp], rax
  00311	0f b6 95 e4 01
	00 00		 movzx	 edx, BYTE PTR tv300[rbp]
  00318	48 8b 8d e8 01
	00 00		 mov	 rcx, QWORD PTR tv301[rbp]
  0031f	ff 15 00 00 00
	00		 call	 QWORD PTR __imp_?sputc@?$basic_streambuf@DU?$char_traits@D@std@@@std@@QEAAHD@Z
  00325	89 85 f0 01 00
	00		 mov	 DWORD PTR tv302[rbp], eax
  0032b	8b 85 f0 01 00
	00		 mov	 eax, DWORD PTR tv302[rbp]
  00331	89 85 94 01 00
	00		 mov	 DWORD PTR $T6[rbp], eax
  00337	e8 00 00 00 00	 call	 ?eof@?$_Narrow_char_traits@DH@std@@SAHXZ ; std::_Narrow_char_traits<char,int>::eof
  0033c	89 85 b4 01 00
	00		 mov	 DWORD PTR $T7[rbp], eax
  00342	48 8d 95 94 01
	00 00		 lea	 rdx, QWORD PTR $T6[rbp]
  00349	48 8d 8d b4 01
	00 00		 lea	 rcx, QWORD PTR $T7[rbp]
  00350	e8 00 00 00 00	 call	 ?eq_int_type@?$_Narrow_char_traits@DH@std@@SA_NAEBH0@Z ; std::_Narrow_char_traits<char,int>::eq_int_type
  00355	0f b6 c0	 movzx	 eax, al
  00358	85 c0		 test	 eax, eax
  0035a	74 0b		 je	 SHORT $LN15@operator

; 763  :                     _State |= ios_base::badbit; // insertion failed, quit

  0035c	8b 45 04	 mov	 eax, DWORD PTR _State$[rbp]
  0035f	83 c8 04	 or	 eax, 4
  00362	89 45 04	 mov	 DWORD PTR _State$[rbp], eax

; 764  :                     break;

  00365	eb 05		 jmp	 SHORT $LN14@operator
$LN15@operator:

; 765  :                 }
; 766  :             }

  00367	e9 3a ff ff ff	 jmp	 $LN5@operator
$LN14@operator:

; 767  :         }
; 768  : 
; 769  :         _Ostr.width(0);

  0036c	48 8b 85 20 02
	00 00		 mov	 rax, QWORD PTR _Ostr$[rbp]
  00373	48 8b 00	 mov	 rax, QWORD PTR [rax]
  00376	48 63 40 04	 movsxd	 rax, DWORD PTR [rax+4]
  0037a	48 8b 8d 20 02
	00 00		 mov	 rcx, QWORD PTR _Ostr$[rbp]
  00381	48 03 c8	 add	 rcx, rax
  00384	48 8b c1	 mov	 rax, rcx
  00387	33 d2		 xor	 edx, edx
  00389	48 8b c8	 mov	 rcx, rax
  0038c	ff 15 00 00 00
	00		 call	 QWORD PTR __imp_?width@ios_base@std@@QEAA_J_J@Z
  00392	90		 npad	 1
  00393	eb 00		 jmp	 SHORT $LN9@operator
$LN23@operator:
$LN9@operator:

; 770  :         _CATCH_IO_(ios_base, _Ostr)
; 771  :     }
; 772  : 
; 773  :     _Ostr.setstate(_State);

  00395	48 8b 85 20 02
	00 00		 mov	 rax, QWORD PTR _Ostr$[rbp]
  0039c	48 8b 00	 mov	 rax, QWORD PTR [rax]
  0039f	48 63 40 04	 movsxd	 rax, DWORD PTR [rax+4]
  003a3	48 8b 8d 20 02
	00 00		 mov	 rcx, QWORD PTR _Ostr$[rbp]
  003aa	48 03 c8	 add	 rcx, rax
  003ad	48 8b c1	 mov	 rax, rcx
  003b0	45 33 c0	 xor	 r8d, r8d
  003b3	8b 55 04	 mov	 edx, DWORD PTR _State$[rbp]
  003b6	48 8b c8	 mov	 rcx, rax
  003b9	ff 15 00 00 00
	00		 call	 QWORD PTR __imp_?setstate@?$basic_ios@DU?$char_traits@D@std@@@std@@QEAAXH_N@Z

; 774  :     return _Ostr;

  003bf	48 8b 85 20 02
	00 00		 mov	 rax, QWORD PTR _Ostr$[rbp]
  003c6	48 89 85 d8 01
	00 00		 mov	 QWORD PTR $T8[rbp], rax
  003cd	48 8d 4d 68	 lea	 rcx, QWORD PTR _Ok$[rbp]
  003d1	e8 00 00 00 00	 call	 ??1sentry@?$basic_ostream@DU?$char_traits@D@std@@@std@@QEAA@XZ ; std::basic_ostream<char,std::char_traits<char> >::sentry::~sentry
  003d6	48 8b 85 d8 01
	00 00		 mov	 rax, QWORD PTR $T8[rbp]

; 775  : }

  003dd	48 8b f8	 mov	 rdi, rax
  003e0	48 8d 4d e0	 lea	 rcx, QWORD PTR [rbp-32]
  003e4	48 8d 15 00 00
	00 00		 lea	 rdx, OFFSET FLAT:??$?6U?$char_traits@D@std@@@std@@YAAEAV?$basic_ostream@DU?$char_traits@D@std@@@0@AEAV10@PEBD@Z$rtcFrameData
  003eb	e8 00 00 00 00	 call	 _RTC_CheckStackVars
  003f0	48 8b c7	 mov	 rax, rdi
  003f3	48 8b 8d f8 01
	00 00		 mov	 rcx, QWORD PTR __$ArrayPad$[rbp]
  003fa	48 33 cd	 xor	 rcx, rbp
  003fd	e8 00 00 00 00	 call	 __security_check_cookie
  00402	48 8d a5 08 02
	00 00		 lea	 rsp, QWORD PTR [rbp+520]
  00409	5f		 pop	 rdi
  0040a	5d		 pop	 rbp
  0040b	c3		 ret	 0
??$?6U?$char_traits@D@std@@@std@@YAAEAV?$basic_ostream@DU?$char_traits@D@std@@@0@AEAV10@PEBD@Z ENDP ; std::operator<<<std::char_traits<char> >
_TEXT	ENDS
;	COMDAT text$x
text$x	SEGMENT
_State$ = 4
_Count$ = 40
_Pad$ = 72
_Ok$ = 104
$T4 = 340
$T5 = 372
$T6 = 404
$T7 = 436
$T8 = 472
tv300 = 484
tv295 = 484
tv139 = 484
tv301 = 488
tv298 = 488
tv296 = 488
tv137 = 488
tv302 = 496
tv299 = 496
tv297 = 496
__$ArrayPad$ = 504
_Ostr$ = 544
_Val$ = 552
?dtor$0@?0???$?6U?$char_traits@D@std@@@std@@YAAEAV?$basic_ostream@DU?$char_traits@D@std@@@0@AEAV10@PEBD@Z@4HA PROC ; `std::operator<<<std::char_traits<char> >'::`1'::dtor$0
  00000	48 89 4c 24 08	 mov	 QWORD PTR [rsp+8], rcx
  00005	48 89 54 24 10	 mov	 QWORD PTR [rsp+16], rdx
  0000a	55		 push	 rbp
  0000b	57		 push	 rdi
  0000c	48 83 ec 28	 sub	 rsp, 40			; 00000028H
  00010	48 8d 6a 20	 lea	 rbp, QWORD PTR [rdx+32]
  00014	48 8d 4d 68	 lea	 rcx, QWORD PTR _Ok$[rbp]
  00018	e8 00 00 00 00	 call	 ??1sentry@?$basic_ostream@DU?$char_traits@D@std@@@std@@QEAA@XZ ; std::basic_ostream<char,std::char_traits<char> >::sentry::~sentry
  0001d	48 83 c4 28	 add	 rsp, 40			; 00000028H
  00021	5f		 pop	 rdi
  00022	5d		 pop	 rbp
  00023	c3		 ret	 0
?dtor$0@?0???$?6U?$char_traits@D@std@@@std@@YAAEAV?$basic_ostream@DU?$char_traits@D@std@@@0@AEAV10@PEBD@Z@4HA ENDP ; `std::operator<<<std::char_traits<char> >'::`1'::dtor$0
text$x	ENDS
;	COMDAT text$x
text$x	SEGMENT
_State$ = 4
_Count$ = 40
_Pad$ = 72
_Ok$ = 104
$T4 = 340
$T5 = 372
$T6 = 404
$T7 = 436
$T8 = 472
tv300 = 484
tv295 = 484
tv139 = 484
tv301 = 488
tv298 = 488
tv296 = 488
tv137 = 488
tv302 = 496
tv299 = 496
tv297 = 496
__$ArrayPad$ = 504
_Ostr$ = 544
_Val$ = 552
?catch$1@?0???$?6U?$char_traits@D@std@@@std@@YAAEAV?$basic_ostream@DU?$char_traits@D@std@@@0@AEAV10@PEBD@Z@4HA PROC ; `std::operator<<<std::char_traits<char> >'::`1'::catch$1

; 770  :         _CATCH_IO_(ios_base, _Ostr)

  00000	48 89 4c 24 08	 mov	 QWORD PTR [rsp+8], rcx
  00005	48 89 54 24 10	 mov	 QWORD PTR [rsp+16], rdx
  0000a	55		 push	 rbp
  0000b	57		 push	 rdi
  0000c	48 83 ec 28	 sub	 rsp, 40			; 00000028H
  00010	48 8d 6a 20	 lea	 rbp, QWORD PTR [rdx+32]
__catch$??$?6U?$char_traits@D@std@@@std@@YAAEAV?$basic_ostream@DU?$char_traits@D@std@@@0@AEAV10@PEBD@Z$0:
  00014	48 8b 85 20 02
	00 00		 mov	 rax, QWORD PTR _Ostr$[rbp]
  0001b	48 8b 00	 mov	 rax, QWORD PTR [rax]
  0001e	48 63 40 04	 movsxd	 rax, DWORD PTR [rax+4]
  00022	48 8b 8d 20 02
	00 00		 mov	 rcx, QWORD PTR _Ostr$[rbp]
  00029	48 03 c8	 add	 rcx, rax
  0002c	48 8b c1	 mov	 rax, rcx
  0002f	41 b0 01	 mov	 r8b, 1
  00032	ba 04 00 00 00	 mov	 edx, 4
  00037	48 8b c8	 mov	 rcx, rax
  0003a	ff 15 00 00 00
	00		 call	 QWORD PTR __imp_?setstate@?$basic_ios@DU?$char_traits@D@std@@@std@@QEAAXH_N@Z
  00040	90		 npad	 1
  00041	48 8d 05 00 00
	00 00		 lea	 rax, $LN23@catch$1
  00048	48 83 c4 28	 add	 rsp, 40			; 00000028H
  0004c	5f		 pop	 rdi
  0004d	5d		 pop	 rbp
  0004e	c3		 ret	 0
  0004f	cc		 int	 3
?catch$1@?0???$?6U?$char_traits@D@std@@@std@@YAAEAV?$basic_ostream@DU?$char_traits@D@std@@@0@AEAV10@PEBD@Z@4HA ENDP ; `std::operator<<<std::char_traits<char> >'::`1'::catch$1
text$x	ENDS
; Function compile flags: /Odtp /RTCsu /ZI
;	COMDAT text$x
text$x	SEGMENT
_State$ = 4
_Count$ = 40
_Pad$ = 72
_Ok$ = 104
$T4 = 340
$T5 = 372
$T6 = 404
$T7 = 436
$T8 = 472
tv300 = 484
tv295 = 484
tv139 = 484
tv301 = 488
tv298 = 488
tv296 = 488
tv137 = 488
tv302 = 496
tv299 = 496
tv297 = 496
__$ArrayPad$ = 504
_Ostr$ = 544
_Val$ = 552
?dtor$0@?0???$?6U?$char_traits@D@std@@@std@@YAAEAV?$basic_ostream@DU?$char_traits@D@std@@@0@AEAV10@PEBD@Z@4HA PROC ; `std::operator<<<std::char_traits<char> >'::`1'::dtor$0
  00000	48 89 4c 24 08	 mov	 QWORD PTR [rsp+8], rcx
  00005	48 89 54 24 10	 mov	 QWORD PTR [rsp+16], rdx
  0000a	55		 push	 rbp
  0000b	57		 push	 rdi
  0000c	48 83 ec 28	 sub	 rsp, 40			; 00000028H
  00010	48 8d 6a 20	 lea	 rbp, QWORD PTR [rdx+32]
  00014	48 8d 4d 68	 lea	 rcx, QWORD PTR _Ok$[rbp]
  00018	e8 00 00 00 00	 call	 ??1sentry@?$basic_ostream@DU?$char_traits@D@std@@@std@@QEAA@XZ ; std::basic_ostream<char,std::char_traits<char> >::sentry::~sentry
  0001d	48 83 c4 28	 add	 rsp, 40			; 00000028H
  00021	5f		 pop	 rdi
  00022	5d		 pop	 rbp
  00023	c3		 ret	 0
?dtor$0@?0???$?6U?$char_traits@D@std@@@std@@YAAEAV?$basic_ostream@DU?$char_traits@D@std@@@0@AEAV10@PEBD@Z@4HA ENDP ; `std::operator<<<std::char_traits<char> >'::`1'::dtor$0
text$x	ENDS
; Function compile flags: /Odtp /RTCsu /ZI
;	COMDAT text$x
text$x	SEGMENT
_State$ = 4
_Count$ = 40
_Pad$ = 72
_Ok$ = 104
$T4 = 340
$T5 = 372
$T6 = 404
$T7 = 436
$T8 = 472
tv300 = 484
tv295 = 484
tv139 = 484
tv301 = 488
tv298 = 488
tv296 = 488
tv137 = 488
tv302 = 496
tv299 = 496
tv297 = 496
__$ArrayPad$ = 504
_Ostr$ = 544
_Val$ = 552
?catch$1@?0???$?6U?$char_traits@D@std@@@std@@YAAEAV?$basic_ostream@DU?$char_traits@D@std@@@0@AEAV10@PEBD@Z@4HA PROC ; `std::operator<<<std::char_traits<char> >'::`1'::catch$1

; 770  :         _CATCH_IO_(ios_base, _Ostr)

  00000	48 89 4c 24 08	 mov	 QWORD PTR [rsp+8], rcx
  00005	48 89 54 24 10	 mov	 QWORD PTR [rsp+16], rdx
  0000a	55		 push	 rbp
  0000b	57		 push	 rdi
  0000c	48 83 ec 28	 sub	 rsp, 40			; 00000028H
  00010	48 8d 6a 20	 lea	 rbp, QWORD PTR [rdx+32]
__catch$??$?6U?$char_traits@D@std@@@std@@YAAEAV?$basic_ostream@DU?$char_traits@D@std@@@0@AEAV10@PEBD@Z$0:
  00014	48 8b 85 20 02
	00 00		 mov	 rax, QWORD PTR _Ostr$[rbp]
  0001b	48 8b 00	 mov	 rax, QWORD PTR [rax]
  0001e	48 63 40 04	 movsxd	 rax, DWORD PTR [rax+4]
  00022	48 8b 8d 20 02
	00 00		 mov	 rcx, QWORD PTR _Ostr$[rbp]
  00029	48 03 c8	 add	 rcx, rax
  0002c	48 8b c1	 mov	 rax, rcx
  0002f	41 b0 01	 mov	 r8b, 1
  00032	ba 04 00 00 00	 mov	 edx, 4
  00037	48 8b c8	 mov	 rcx, rax
  0003a	ff 15 00 00 00
	00		 call	 QWORD PTR __imp_?setstate@?$basic_ios@DU?$char_traits@D@std@@@std@@QEAAXH_N@Z
  00040	90		 npad	 1
  00041	48 8d 05 00 00
	00 00		 lea	 rax, $LN23@catch$1
  00048	48 83 c4 28	 add	 rsp, 40			; 00000028H
  0004c	5f		 pop	 rdi
  0004d	5d		 pop	 rbp
  0004e	c3		 ret	 0
  0004f	cc		 int	 3
?catch$1@?0???$?6U?$char_traits@D@std@@@std@@YAAEAV?$basic_ostream@DU?$char_traits@D@std@@@0@AEAV10@PEBD@Z@4HA ENDP ; `std::operator<<<std::char_traits<char> >'::`1'::catch$1
text$x	ENDS
; Function compile flags: /Odtp /RTCsu /ZI
; File C:\Program Files (x86)\Microsoft Visual Studio\2019\Community\VC\Tools\MSVC\14.29.30133\include\chrono
;	COMDAT ??$duration_cast@V?$duration@_JU?$ratio@$00$0DLJKMKAA@@std@@@chrono@std@@_JU?$ratio@$00$0DLJKMKAA@@3@$0A@@chrono@std@@YA?AV?$duration@_JU?$ratio@$00$0DLJKMKAA@@std@@@01@AEBV201@@Z
_TEXT	SEGMENT
_Num_is_one$ = 4
_Den_is_one$ = 36
$T1 = 264
$T2 = 296
$T3 = 328
$T4 = 360
__$ReturnUdt$ = 416
_Dur$ = 424
??$duration_cast@V?$duration@_JU?$ratio@$00$0DLJKMKAA@@std@@@chrono@std@@_JU?$ratio@$00$0DLJKMKAA@@3@$0A@@chrono@std@@YA?AV?$duration@_JU?$ratio@$00$0DLJKMKAA@@std@@@01@AEBV201@@Z PROC ; std::chrono::duration_cast<std::chrono::duration<__int64,std::ratio<1,1000000000> >,__int64,std::ratio<1,1000000000>,0>, COMDAT

; 448  :         is_arithmetic_v<_Rep>&& is_arithmetic_v<typename _To::rep>) /* strengthened */ {

$LN9:
  00000	48 89 54 24 10	 mov	 QWORD PTR [rsp+16], rdx
  00005	48 89 4c 24 08	 mov	 QWORD PTR [rsp+8], rcx
  0000a	55		 push	 rbp
  0000b	57		 push	 rdi
  0000c	48 81 ec a8 01
	00 00		 sub	 rsp, 424		; 000001a8H
  00013	48 8d 6c 24 20	 lea	 rbp, QWORD PTR [rsp+32]
  00018	48 8d 0d 00 00
	00 00		 lea	 rcx, OFFSET FLAT:__1B08F288_chrono
  0001f	e8 00 00 00 00	 call	 __CheckForDebuggerJustMyCode

; 449  :         // convert duration to another duration; truncate
; 450  :         using _CF = ratio_divide<_Period, typename _To::period>;
; 451  : 
; 452  :         using _ToRep = typename _To::rep;
; 453  :         using _CR    = common_type_t<_ToRep, _Rep, intmax_t>;
; 454  : 
; 455  :         constexpr bool _Num_is_one = _CF::num == 1;

  00024	c6 45 04 01	 mov	 BYTE PTR _Num_is_one$[rbp], 1

; 456  :         constexpr bool _Den_is_one = _CF::den == 1;

  00028	c6 45 24 01	 mov	 BYTE PTR _Den_is_one$[rbp], 1

; 457  : 
; 458  :         if (_Den_is_one) {

  0002c	33 c0		 xor	 eax, eax
  0002e	83 f8 01	 cmp	 eax, 1
  00031	74 6c		 je	 SHORT $LN2@duration_c

; 459  :             if (_Num_is_one) {

  00033	33 c0		 xor	 eax, eax
  00035	83 f8 01	 cmp	 eax, 1
  00038	74 34		 je	 SHORT $LN4@duration_c

; 460  :                 return static_cast<_To>(static_cast<_ToRep>(_Dur.count()));

  0003a	48 8b 8d a8 01
	00 00		 mov	 rcx, QWORD PTR _Dur$[rbp]
  00041	e8 00 00 00 00	 call	 ?count@?$duration@_JU?$ratio@$00$0DLJKMKAA@@std@@@chrono@std@@QEBA_JXZ ; std::chrono::duration<__int64,std::ratio<1,1000000000> >::count
  00046	48 89 85 08 01
	00 00		 mov	 QWORD PTR $T1[rbp], rax
  0004d	48 8d 95 08 01
	00 00		 lea	 rdx, QWORD PTR $T1[rbp]
  00054	48 8b 8d a0 01
	00 00		 mov	 rcx, QWORD PTR __$ReturnUdt$[rbp]
  0005b	e8 00 00 00 00	 call	 ??$?0_J$0A@@?$duration@_JU?$ratio@$00$0DLJKMKAA@@std@@@chrono@std@@QEAA@AEB_J@Z ; std::chrono::duration<__int64,std::ratio<1,1000000000> >::duration<__int64,std::ratio<1,1000000000> ><__int64,0>
  00060	48 8b 85 a0 01
	00 00		 mov	 rax, QWORD PTR __$ReturnUdt$[rbp]
  00067	e9 98 00 00 00	 jmp	 $LN1@duration_c

; 461  :             } else {

  0006c	eb 2f		 jmp	 SHORT $LN5@duration_c
$LN4@duration_c:

; 462  :                 return static_cast<_To>(

  0006e	48 8b 8d a8 01
	00 00		 mov	 rcx, QWORD PTR _Dur$[rbp]
  00075	e8 00 00 00 00	 call	 ?count@?$duration@_JU?$ratio@$00$0DLJKMKAA@@std@@@chrono@std@@QEBA_JXZ ; std::chrono::duration<__int64,std::ratio<1,1000000000> >::count
  0007a	48 89 85 28 01
	00 00		 mov	 QWORD PTR $T2[rbp], rax
  00081	48 8d 95 28 01
	00 00		 lea	 rdx, QWORD PTR $T2[rbp]
  00088	48 8b 8d a0 01
	00 00		 mov	 rcx, QWORD PTR __$ReturnUdt$[rbp]
  0008f	e8 00 00 00 00	 call	 ??$?0_J$0A@@?$duration@_JU?$ratio@$00$0DLJKMKAA@@std@@@chrono@std@@QEAA@AEB_J@Z ; std::chrono::duration<__int64,std::ratio<1,1000000000> >::duration<__int64,std::ratio<1,1000000000> ><__int64,0>
  00094	48 8b 85 a0 01
	00 00		 mov	 rax, QWORD PTR __$ReturnUdt$[rbp]
  0009b	eb 67		 jmp	 SHORT $LN1@duration_c
$LN5@duration_c:

; 463  :                     static_cast<_ToRep>(static_cast<_CR>(_Dur.count()) * static_cast<_CR>(_CF::num)));
; 464  :             }
; 465  :         } else {

  0009d	eb 65		 jmp	 SHORT $LN1@duration_c
$LN2@duration_c:

; 466  :             if (_Num_is_one) {

  0009f	33 c0		 xor	 eax, eax
  000a1	83 f8 01	 cmp	 eax, 1
  000a4	74 31		 je	 SHORT $LN6@duration_c

; 467  :                 return static_cast<_To>(

  000a6	48 8b 8d a8 01
	00 00		 mov	 rcx, QWORD PTR _Dur$[rbp]
  000ad	e8 00 00 00 00	 call	 ?count@?$duration@_JU?$ratio@$00$0DLJKMKAA@@std@@@chrono@std@@QEBA_JXZ ; std::chrono::duration<__int64,std::ratio<1,1000000000> >::count
  000b2	48 89 85 48 01
	00 00		 mov	 QWORD PTR $T3[rbp], rax
  000b9	48 8d 95 48 01
	00 00		 lea	 rdx, QWORD PTR $T3[rbp]
  000c0	48 8b 8d a0 01
	00 00		 mov	 rcx, QWORD PTR __$ReturnUdt$[rbp]
  000c7	e8 00 00 00 00	 call	 ??$?0_J$0A@@?$duration@_JU?$ratio@$00$0DLJKMKAA@@std@@@chrono@std@@QEAA@AEB_J@Z ; std::chrono::duration<__int64,std::ratio<1,1000000000> >::duration<__int64,std::ratio<1,1000000000> ><__int64,0>
  000cc	48 8b 85 a0 01
	00 00		 mov	 rax, QWORD PTR __$ReturnUdt$[rbp]
  000d3	eb 2f		 jmp	 SHORT $LN1@duration_c

; 468  :                     static_cast<_ToRep>(static_cast<_CR>(_Dur.count()) / static_cast<_CR>(_CF::den)));
; 469  :             } else {

  000d5	eb 2d		 jmp	 SHORT $LN1@duration_c
$LN6@duration_c:

; 470  :                 return static_cast<_To>(static_cast<_ToRep>(

  000d7	48 8b 8d a8 01
	00 00		 mov	 rcx, QWORD PTR _Dur$[rbp]
  000de	e8 00 00 00 00	 call	 ?count@?$duration@_JU?$ratio@$00$0DLJKMKAA@@std@@@chrono@std@@QEBA_JXZ ; std::chrono::duration<__int64,std::ratio<1,1000000000> >::count
  000e3	48 89 85 68 01
	00 00		 mov	 QWORD PTR $T4[rbp], rax
  000ea	48 8d 95 68 01
	00 00		 lea	 rdx, QWORD PTR $T4[rbp]
  000f1	48 8b 8d a0 01
	00 00		 mov	 rcx, QWORD PTR __$ReturnUdt$[rbp]
  000f8	e8 00 00 00 00	 call	 ??$?0_J$0A@@?$duration@_JU?$ratio@$00$0DLJKMKAA@@std@@@chrono@std@@QEAA@AEB_J@Z ; std::chrono::duration<__int64,std::ratio<1,1000000000> >::duration<__int64,std::ratio<1,1000000000> ><__int64,0>
  000fd	48 8b 85 a0 01
	00 00		 mov	 rax, QWORD PTR __$ReturnUdt$[rbp]
$LN1@duration_c:

; 471  :                     static_cast<_CR>(_Dur.count()) * static_cast<_CR>(_CF::num) / static_cast<_CR>(_CF::den)));
; 472  :             }
; 473  :         }
; 474  :     }

  00104	48 8d a5 88 01
	00 00		 lea	 rsp, QWORD PTR [rbp+392]
  0010b	5f		 pop	 rdi
  0010c	5d		 pop	 rbp
  0010d	c3		 ret	 0
??$duration_cast@V?$duration@_JU?$ratio@$00$0DLJKMKAA@@std@@@chrono@std@@_JU?$ratio@$00$0DLJKMKAA@@3@$0A@@chrono@std@@YA?AV?$duration@_JU?$ratio@$00$0DLJKMKAA@@std@@@01@AEBV201@@Z ENDP ; std::chrono::duration_cast<std::chrono::duration<__int64,std::ratio<1,1000000000> >,__int64,std::ratio<1,1000000000>,0>
_TEXT	ENDS
; Function compile flags: /Odtp /RTCsu /ZI
; File C:\Program Files (x86)\Microsoft Visual Studio\2019\Community\VC\Tools\MSVC\14.29.30133\include\chrono
;	COMDAT ??$?GUsteady_clock@chrono@std@@V?$duration@_JU?$ratio@$00$0DLJKMKAA@@std@@@12@V312@@chrono@std@@YA?AV?$duration@_JU?$ratio@$00$0DLJKMKAA@@std@@@01@AEBV?$time_point@Usteady_clock@chrono@std@@V?$duration@_JU?$ratio@$00$0DLJKMKAA@@std@@@23@@01@0@Z
_TEXT	SEGMENT
$T1 = 200
$T2 = 232
tv66 = 248
__$ReturnUdt$ = 288
_Left$ = 296
_Right$ = 304
??$?GUsteady_clock@chrono@std@@V?$duration@_JU?$ratio@$00$0DLJKMKAA@@std@@@12@V312@@chrono@std@@YA?AV?$duration@_JU?$ratio@$00$0DLJKMKAA@@std@@@01@AEBV?$time_point@Usteady_clock@chrono@std@@V?$duration@_JU?$ratio@$00$0DLJKMKAA@@std@@@23@@01@0@Z PROC ; std::chrono::operator-<std::chrono::steady_clock,std::chrono::duration<__int64,std::ratio<1,1000000000> >,std::chrono::duration<__int64,std::ratio<1,1000000000> > >, COMDAT

; 577  :             is_arithmetic_v<typename _Duration1::rep>&& is_arithmetic_v<typename _Duration2::rep>) /* strengthened */ {

$LN3:
  00000	4c 89 44 24 18	 mov	 QWORD PTR [rsp+24], r8
  00005	48 89 54 24 10	 mov	 QWORD PTR [rsp+16], rdx
  0000a	48 89 4c 24 08	 mov	 QWORD PTR [rsp+8], rcx
  0000f	55		 push	 rbp
  00010	57		 push	 rdi
  00011	48 81 ec 28 01
	00 00		 sub	 rsp, 296		; 00000128H
  00018	48 8d 6c 24 20	 lea	 rbp, QWORD PTR [rsp+32]
  0001d	48 8d 0d 00 00
	00 00		 lea	 rcx, OFFSET FLAT:__1B08F288_chrono
  00024	e8 00 00 00 00	 call	 __CheckForDebuggerJustMyCode

; 578  :         return _Left.time_since_epoch() - _Right.time_since_epoch();

  00029	48 8d 95 c8 00
	00 00		 lea	 rdx, QWORD PTR $T1[rbp]
  00030	48 8b 8d 30 01
	00 00		 mov	 rcx, QWORD PTR _Right$[rbp]
  00037	e8 00 00 00 00	 call	 ?time_since_epoch@?$time_point@Usteady_clock@chrono@std@@V?$duration@_JU?$ratio@$00$0DLJKMKAA@@std@@@23@@chrono@std@@QEBA?AV?$duration@_JU?$ratio@$00$0DLJKMKAA@@std@@@23@XZ ; std::chrono::time_point<std::chrono::steady_clock,std::chrono::duration<__int64,std::ratio<1,1000000000> > >::time_since_epoch
  0003c	48 89 85 f8 00
	00 00		 mov	 QWORD PTR tv66[rbp], rax
  00043	48 8d 95 e8 00
	00 00		 lea	 rdx, QWORD PTR $T2[rbp]
  0004a	48 8b 8d 28 01
	00 00		 mov	 rcx, QWORD PTR _Left$[rbp]
  00051	e8 00 00 00 00	 call	 ?time_since_epoch@?$time_point@Usteady_clock@chrono@std@@V?$duration@_JU?$ratio@$00$0DLJKMKAA@@std@@@23@@chrono@std@@QEBA?AV?$duration@_JU?$ratio@$00$0DLJKMKAA@@std@@@23@XZ ; std::chrono::time_point<std::chrono::steady_clock,std::chrono::duration<__int64,std::ratio<1,1000000000> > >::time_since_epoch
  00056	48 8b 8d f8 00
	00 00		 mov	 rcx, QWORD PTR tv66[rbp]
  0005d	4c 8b c1	 mov	 r8, rcx
  00060	48 8b d0	 mov	 rdx, rax
  00063	48 8b 8d 20 01
	00 00		 mov	 rcx, QWORD PTR __$ReturnUdt$[rbp]
  0006a	e8 00 00 00 00	 call	 ??$?G_JU?$ratio@$00$0DLJKMKAA@@std@@_JU01@@chrono@std@@YA?AV?$duration@_JU?$ratio@$00$0DLJKMKAA@@std@@@01@AEBV201@0@Z ; std::chrono::operator-<__int64,std::ratio<1,1000000000>,__int64,std::ratio<1,1000000000> >
  0006f	48 8b 85 20 01
	00 00		 mov	 rax, QWORD PTR __$ReturnUdt$[rbp]

; 579  :     }

  00076	48 8d a5 08 01
	00 00		 lea	 rsp, QWORD PTR [rbp+264]
  0007d	5f		 pop	 rdi
  0007e	5d		 pop	 rbp
  0007f	c3		 ret	 0
??$?GUsteady_clock@chrono@std@@V?$duration@_JU?$ratio@$00$0DLJKMKAA@@std@@@12@V312@@chrono@std@@YA?AV?$duration@_JU?$ratio@$00$0DLJKMKAA@@std@@@01@AEBV?$time_point@Usteady_clock@chrono@std@@V?$duration@_JU?$ratio@$00$0DLJKMKAA@@std@@@23@@01@0@Z ENDP ; std::chrono::operator-<std::chrono::steady_clock,std::chrono::duration<__int64,std::ratio<1,1000000000> >,std::chrono::duration<__int64,std::ratio<1,1000000000> > >
_TEXT	ENDS
; Function compile flags: /Odtp /RTCsu /ZI
; File E:\Visual_Studio_Community\Files\testsolution01\Ch01\Ch01.cpp
;	COMDAT main
_TEXT	SEGMENT
x$ = 8
y$ = 40
z$ = 72
i$5 = 100
size$ = 136
start$ = 168
end$ = 200
time_taken$ = 232
$T6 = 648
$T7 = 680
$T8 = 712
$T9 = 744
$T10 = 776
$T11 = 808
$T12 = 856
$T13 = 888
$T14 = 920
$T15 = 952
$T16 = 984
$T17 = 1032
$T18 = 1064
$T19 = 1096
$T20 = 1128
$T21 = 1160
tv225 = 1192
tv184 = 1192
tv143 = 1192
__$ArrayPad$ = 1200
main	PROC						; COMDAT

; 35   : {

$LN6:
  00000	40 55		 push	 rbp
  00002	57		 push	 rdi
  00003	48 81 ec e8 04
	00 00		 sub	 rsp, 1256		; 000004e8H
  0000a	48 8d 6c 24 20	 lea	 rbp, QWORD PTR [rsp+32]
  0000f	48 8d 7c 24 20	 lea	 rdi, QWORD PTR [rsp+32]
  00014	b9 d2 00 00 00	 mov	 ecx, 210		; 000000d2H
  00019	b8 cc cc cc cc	 mov	 eax, -858993460		; ccccccccH
  0001e	f3 ab		 rep stosd
  00020	48 8b 05 00 00
	00 00		 mov	 rax, QWORD PTR __security_cookie
  00027	48 33 c5	 xor	 rax, rbp
  0002a	48 89 85 b0 04
	00 00		 mov	 QWORD PTR __$ArrayPad$[rbp], rax
  00031	48 8d 0d 00 00
	00 00		 lea	 rcx, OFFSET FLAT:__3F19CEC4_Ch01@cpp
  00038	e8 00 00 00 00	 call	 __CheckForDebuggerJustMyCode

; 36   :     //std::cout << "Hello World!\n";
; 37   :     float* x = new float[10000];

  0003d	b9 40 9c 00 00	 mov	 ecx, 40000		; 00009c40H
  00042	e8 00 00 00 00	 call	 ??_U@YAPEAX_K@Z		; operator new[]
  00047	48 89 85 88 02
	00 00		 mov	 QWORD PTR $T6[rbp], rax
  0004e	48 8b 85 88 02
	00 00		 mov	 rax, QWORD PTR $T6[rbp]
  00055	48 89 45 08	 mov	 QWORD PTR x$[rbp], rax

; 38   :     float* y = new float[10000];

  00059	b9 40 9c 00 00	 mov	 ecx, 40000		; 00009c40H
  0005e	e8 00 00 00 00	 call	 ??_U@YAPEAX_K@Z		; operator new[]
  00063	48 89 85 a8 02
	00 00		 mov	 QWORD PTR $T7[rbp], rax
  0006a	48 8b 85 a8 02
	00 00		 mov	 rax, QWORD PTR $T7[rbp]
  00071	48 89 45 28	 mov	 QWORD PTR y$[rbp], rax

; 39   :     float* z = new float[10000];

  00075	b9 40 9c 00 00	 mov	 ecx, 40000		; 00009c40H
  0007a	e8 00 00 00 00	 call	 ??_U@YAPEAX_K@Z		; operator new[]
  0007f	48 89 85 c8 02
	00 00		 mov	 QWORD PTR $T8[rbp], rax
  00086	48 8b 85 c8 02
	00 00		 mov	 rax, QWORD PTR $T8[rbp]
  0008d	48 89 45 48	 mov	 QWORD PTR z$[rbp], rax

; 40   :     for (int i = 0; i < 10000; i++) {

  00091	c7 45 64 00 00
	00 00		 mov	 DWORD PTR i$5[rbp], 0
  00098	eb 08		 jmp	 SHORT $LN4@main
$LN2@main:
  0009a	8b 45 64	 mov	 eax, DWORD PTR i$5[rbp]
  0009d	ff c0		 inc	 eax
  0009f	89 45 64	 mov	 DWORD PTR i$5[rbp], eax
$LN4@main:
  000a2	81 7d 64 10 27
	00 00		 cmp	 DWORD PTR i$5[rbp], 10000 ; 00002710H
  000a9	7d 2e		 jge	 SHORT $LN3@main

; 41   :         x[i] = i+1;

  000ab	8b 45 64	 mov	 eax, DWORD PTR i$5[rbp]
  000ae	ff c0		 inc	 eax
  000b0	c5 fa 2a c0	 vcvtsi2ss xmm0, xmm0, eax
  000b4	48 63 45 64	 movsxd	 rax, DWORD PTR i$5[rbp]
  000b8	48 8b 4d 08	 mov	 rcx, QWORD PTR x$[rbp]
  000bc	c5 fa 11 04 81	 vmovss	 DWORD PTR [rcx+rax*4], xmm0

; 42   :         y[i] = i*2;

  000c1	8b 45 64	 mov	 eax, DWORD PTR i$5[rbp]
  000c4	d1 e0		 shl	 eax, 1
  000c6	c5 fa 2a c0	 vcvtsi2ss xmm0, xmm0, eax
  000ca	48 63 45 64	 movsxd	 rax, DWORD PTR i$5[rbp]
  000ce	48 8b 4d 28	 mov	 rcx, QWORD PTR y$[rbp]
  000d2	c5 fa 11 04 81	 vmovss	 DWORD PTR [rcx+rax*4], xmm0

; 43   :     }

  000d7	eb c1		 jmp	 SHORT $LN2@main
$LN3@main:

; 44   :     size_t size = 10000;

  000d9	48 c7 85 88 00
	00 00 10 27 00
	00		 mov	 QWORD PTR size$[rbp], 10000 ; 00002710H

; 45   :     //cout << size << endl;
; 46   :     auto start = chrono::high_resolution_clock::now();

  000e4	48 8d 8d a8 00
	00 00		 lea	 rcx, QWORD PTR start$[rbp]
  000eb	e8 00 00 00 00	 call	 ?now@steady_clock@chrono@std@@SA?AV?$time_point@Usteady_clock@chrono@std@@V?$duration@_JU?$ratio@$00$0DLJKMKAA@@std@@@23@@23@XZ ; std::chrono::steady_clock::now

; 47   :     CalcZ_Iavx(z, x, y, size);

  000f0	4c 8b 8d 88 00
	00 00		 mov	 r9, QWORD PTR size$[rbp]
  000f7	4c 8b 45 28	 mov	 r8, QWORD PTR y$[rbp]
  000fb	48 8b 55 08	 mov	 rdx, QWORD PTR x$[rbp]
  000ff	48 8b 4d 48	 mov	 rcx, QWORD PTR z$[rbp]
  00103	e8 00 00 00 00	 call	 ?CalcZ_Iavx@@YAXPEAMPEBM1_K@Z ; CalcZ_Iavx

; 48   :     auto end = chrono::high_resolution_clock::now();

  00108	48 8d 8d c8 00
	00 00		 lea	 rcx, QWORD PTR end$[rbp]
  0010f	e8 00 00 00 00	 call	 ?now@steady_clock@chrono@std@@SA?AV?$time_point@Usteady_clock@chrono@std@@V?$duration@_JU?$ratio@$00$0DLJKMKAA@@std@@@23@@23@XZ ; std::chrono::steady_clock::now

; 49   :     double time_taken = chrono::duration_cast<chrono::nanoseconds>(end - start).count();

  00114	4c 8d 85 a8 00
	00 00		 lea	 r8, QWORD PTR start$[rbp]
  0011b	48 8d 95 c8 00
	00 00		 lea	 rdx, QWORD PTR end$[rbp]
  00122	48 8d 8d e8 02
	00 00		 lea	 rcx, QWORD PTR $T9[rbp]
  00129	e8 00 00 00 00	 call	 ??$?GUsteady_clock@chrono@std@@V?$duration@_JU?$ratio@$00$0DLJKMKAA@@std@@@12@V312@@chrono@std@@YA?AV?$duration@_JU?$ratio@$00$0DLJKMKAA@@std@@@01@AEBV?$time_point@Usteady_clock@chrono@std@@V?$duration@_JU?$ratio@$00$0DLJKMKAA@@std@@@23@@01@0@Z ; std::chrono::operator-<std::chrono::steady_clock,std::chrono::duration<__int64,std::ratio<1,1000000000> >,std::chrono::duration<__int64,std::ratio<1,1000000000> > >
  0012e	48 8b d0	 mov	 rdx, rax
  00131	48 8d 8d 08 03
	00 00		 lea	 rcx, QWORD PTR $T10[rbp]
  00138	e8 00 00 00 00	 call	 ??$duration_cast@V?$duration@_JU?$ratio@$00$0DLJKMKAA@@std@@@chrono@std@@_JU?$ratio@$00$0DLJKMKAA@@3@$0A@@chrono@std@@YA?AV?$duration@_JU?$ratio@$00$0DLJKMKAA@@std@@@01@AEBV201@@Z ; std::chrono::duration_cast<std::chrono::duration<__int64,std::ratio<1,1000000000> >,__int64,std::ratio<1,1000000000>,0>
  0013d	48 8b c8	 mov	 rcx, rax
  00140	e8 00 00 00 00	 call	 ?count@?$duration@_JU?$ratio@$00$0DLJKMKAA@@std@@@chrono@std@@QEBA_JXZ ; std::chrono::duration<__int64,std::ratio<1,1000000000> >::count
  00145	c4 e1 fb 2a c0	 vcvtsi2sd xmm0, xmm0, rax
  0014a	c5 fb 11 85 e8
	00 00 00	 vmovsd	 QWORD PTR time_taken$[rbp], xmm0

; 50   :     time_taken *= 1e-9;

  00152	c5 fb 10 85 e8
	00 00 00	 vmovsd	 xmm0, QWORD PTR time_taken$[rbp]
  0015a	c5 fb 59 05 00
	00 00 00	 vmulsd	 xmm0, xmm0, QWORD PTR __real@3e112e0be826d695
  00162	c5 fb 11 85 e8
	00 00 00	 vmovsd	 QWORD PTR time_taken$[rbp], xmm0

; 51   :     cout << "Time taken by Iavx program is : " << fixed << setprecision(9) << time_taken << " sec" << endl;

  0016a	ba 09 00 00 00	 mov	 edx, 9
  0016f	48 8d 8d 28 03
	00 00		 lea	 rcx, QWORD PTR $T11[rbp]
  00176	e8 00 00 00 00	 call	 ?setprecision@std@@YA?AU?$_Smanip@_J@1@_J@Z ; std::setprecision
  0017b	48 89 85 a8 04
	00 00		 mov	 QWORD PTR tv143[rbp], rax
  00182	48 8d 15 00 00
	00 00		 lea	 rdx, OFFSET FLAT:??_C@_0CB@KPCJIIKF@Time?5taken?5by?5Iavx?5program?5is?5?3@
  00189	48 8b 0d 00 00
	00 00		 mov	 rcx, QWORD PTR __imp_?cout@std@@3V?$basic_ostream@DU?$char_traits@D@std@@@1@A
  00190	e8 00 00 00 00	 call	 ??$?6U?$char_traits@D@std@@@std@@YAAEAV?$basic_ostream@DU?$char_traits@D@std@@@0@AEAV10@PEBD@Z ; std::operator<<<std::char_traits<char> >
  00195	48 8d 15 00 00
	00 00		 lea	 rdx, OFFSET FLAT:?fixed@std@@YAAEAVios_base@1@AEAV21@@Z ; std::fixed
  0019c	48 8b c8	 mov	 rcx, rax
  0019f	ff 15 00 00 00
	00		 call	 QWORD PTR __imp_??6?$basic_ostream@DU?$char_traits@D@std@@@std@@QEAAAEAV01@P6AAEAVios_base@1@AEAV21@@Z@Z
  001a5	48 8b 8d a8 04
	00 00		 mov	 rcx, QWORD PTR tv143[rbp]
  001ac	48 8b d1	 mov	 rdx, rcx
  001af	48 8b c8	 mov	 rcx, rax
  001b2	e8 00 00 00 00	 call	 ??$?6DU?$char_traits@D@std@@_J@std@@YAAEAV?$basic_ostream@DU?$char_traits@D@std@@@0@AEAV10@AEBU?$_Smanip@_J@0@@Z ; std::operator<<<char,std::char_traits<char>,__int64>
  001b7	c5 fb 10 8d e8
	00 00 00	 vmovsd	 xmm1, QWORD PTR time_taken$[rbp]
  001bf	48 8b c8	 mov	 rcx, rax
  001c2	ff 15 00 00 00
	00		 call	 QWORD PTR __imp_??6?$basic_ostream@DU?$char_traits@D@std@@@std@@QEAAAEAV01@N@Z
  001c8	48 8d 15 00 00
	00 00		 lea	 rdx, OFFSET FLAT:??_C@_04IBFKBJDL@?5sec@
  001cf	48 8b c8	 mov	 rcx, rax
  001d2	e8 00 00 00 00	 call	 ??$?6U?$char_traits@D@std@@@std@@YAAEAV?$basic_ostream@DU?$char_traits@D@std@@@0@AEAV10@PEBD@Z ; std::operator<<<std::char_traits<char> >
  001d7	48 8d 15 00 00
	00 00		 lea	 rdx, OFFSET FLAT:??$endl@DU?$char_traits@D@std@@@std@@YAAEAV?$basic_ostream@DU?$char_traits@D@std@@@0@AEAV10@@Z ; std::endl<char,std::char_traits<char> >
  001de	48 8b c8	 mov	 rcx, rax
  001e1	ff 15 00 00 00
	00		 call	 QWORD PTR __imp_??6?$basic_ostream@DU?$char_traits@D@std@@@std@@QEAAAEAV01@P6AAEAV01@AEAV01@@Z@Z

; 52   : 
; 53   :     start = chrono::high_resolution_clock::now();

  001e7	48 8d 8d 58 03
	00 00		 lea	 rcx, QWORD PTR $T12[rbp]
  001ee	e8 00 00 00 00	 call	 ?now@steady_clock@chrono@std@@SA?AV?$time_point@Usteady_clock@chrono@std@@V?$duration@_JU?$ratio@$00$0DLJKMKAA@@std@@@23@@23@XZ ; std::chrono::steady_clock::now
  001f3	48 8b 00	 mov	 rax, QWORD PTR [rax]
  001f6	48 89 85 a8 00
	00 00		 mov	 QWORD PTR start$[rbp], rax

; 54   :     CalcZ_Cpp(z, x, y, size);

  001fd	4c 8b 8d 88 00
	00 00		 mov	 r9, QWORD PTR size$[rbp]
  00204	4c 8b 45 28	 mov	 r8, QWORD PTR y$[rbp]
  00208	48 8b 55 08	 mov	 rdx, QWORD PTR x$[rbp]
  0020c	48 8b 4d 48	 mov	 rcx, QWORD PTR z$[rbp]
  00210	e8 00 00 00 00	 call	 ?CalcZ_Cpp@@YAXPEAMPEBM1_K@Z ; CalcZ_Cpp

; 55   :     end = chrono::high_resolution_clock::now();

  00215	48 8d 8d 78 03
	00 00		 lea	 rcx, QWORD PTR $T13[rbp]
  0021c	e8 00 00 00 00	 call	 ?now@steady_clock@chrono@std@@SA?AV?$time_point@Usteady_clock@chrono@std@@V?$duration@_JU?$ratio@$00$0DLJKMKAA@@std@@@23@@23@XZ ; std::chrono::steady_clock::now
  00221	48 8b 00	 mov	 rax, QWORD PTR [rax]
  00224	48 89 85 c8 00
	00 00		 mov	 QWORD PTR end$[rbp], rax

; 56   :     time_taken = chrono::duration_cast<chrono::nanoseconds>(end - start).count();

  0022b	4c 8d 85 a8 00
	00 00		 lea	 r8, QWORD PTR start$[rbp]
  00232	48 8d 95 c8 00
	00 00		 lea	 rdx, QWORD PTR end$[rbp]
  00239	48 8d 8d 98 03
	00 00		 lea	 rcx, QWORD PTR $T14[rbp]
  00240	e8 00 00 00 00	 call	 ??$?GUsteady_clock@chrono@std@@V?$duration@_JU?$ratio@$00$0DLJKMKAA@@std@@@12@V312@@chrono@std@@YA?AV?$duration@_JU?$ratio@$00$0DLJKMKAA@@std@@@01@AEBV?$time_point@Usteady_clock@chrono@std@@V?$duration@_JU?$ratio@$00$0DLJKMKAA@@std@@@23@@01@0@Z ; std::chrono::operator-<std::chrono::steady_clock,std::chrono::duration<__int64,std::ratio<1,1000000000> >,std::chrono::duration<__int64,std::ratio<1,1000000000> > >
  00245	48 8b d0	 mov	 rdx, rax
  00248	48 8d 8d b8 03
	00 00		 lea	 rcx, QWORD PTR $T15[rbp]
  0024f	e8 00 00 00 00	 call	 ??$duration_cast@V?$duration@_JU?$ratio@$00$0DLJKMKAA@@std@@@chrono@std@@_JU?$ratio@$00$0DLJKMKAA@@3@$0A@@chrono@std@@YA?AV?$duration@_JU?$ratio@$00$0DLJKMKAA@@std@@@01@AEBV201@@Z ; std::chrono::duration_cast<std::chrono::duration<__int64,std::ratio<1,1000000000> >,__int64,std::ratio<1,1000000000>,0>
  00254	48 8b c8	 mov	 rcx, rax
  00257	e8 00 00 00 00	 call	 ?count@?$duration@_JU?$ratio@$00$0DLJKMKAA@@std@@@chrono@std@@QEBA_JXZ ; std::chrono::duration<__int64,std::ratio<1,1000000000> >::count
  0025c	c4 e1 fb 2a c0	 vcvtsi2sd xmm0, xmm0, rax
  00261	c5 fb 11 85 e8
	00 00 00	 vmovsd	 QWORD PTR time_taken$[rbp], xmm0

; 57   :     time_taken *= 1e-9;

  00269	c5 fb 10 85 e8
	00 00 00	 vmovsd	 xmm0, QWORD PTR time_taken$[rbp]
  00271	c5 fb 59 05 00
	00 00 00	 vmulsd	 xmm0, xmm0, QWORD PTR __real@3e112e0be826d695
  00279	c5 fb 11 85 e8
	00 00 00	 vmovsd	 QWORD PTR time_taken$[rbp], xmm0

; 58   :     cout << "Time taken by Cpp program is  : " << fixed << setprecision(9) << time_taken << " sec" << endl;

  00281	ba 09 00 00 00	 mov	 edx, 9
  00286	48 8d 8d d8 03
	00 00		 lea	 rcx, QWORD PTR $T16[rbp]
  0028d	e8 00 00 00 00	 call	 ?setprecision@std@@YA?AU?$_Smanip@_J@1@_J@Z ; std::setprecision
  00292	48 89 85 a8 04
	00 00		 mov	 QWORD PTR tv184[rbp], rax
  00299	48 8d 15 00 00
	00 00		 lea	 rdx, OFFSET FLAT:??_C@_0CB@NOJKNLMI@Time?5taken?5by?5Cpp?5program?5is?5?5?3@
  002a0	48 8b 0d 00 00
	00 00		 mov	 rcx, QWORD PTR __imp_?cout@std@@3V?$basic_ostream@DU?$char_traits@D@std@@@1@A
  002a7	e8 00 00 00 00	 call	 ??$?6U?$char_traits@D@std@@@std@@YAAEAV?$basic_ostream@DU?$char_traits@D@std@@@0@AEAV10@PEBD@Z ; std::operator<<<std::char_traits<char> >
  002ac	48 8d 15 00 00
	00 00		 lea	 rdx, OFFSET FLAT:?fixed@std@@YAAEAVios_base@1@AEAV21@@Z ; std::fixed
  002b3	48 8b c8	 mov	 rcx, rax
  002b6	ff 15 00 00 00
	00		 call	 QWORD PTR __imp_??6?$basic_ostream@DU?$char_traits@D@std@@@std@@QEAAAEAV01@P6AAEAVios_base@1@AEAV21@@Z@Z
  002bc	48 8b 8d a8 04
	00 00		 mov	 rcx, QWORD PTR tv184[rbp]
  002c3	48 8b d1	 mov	 rdx, rcx
  002c6	48 8b c8	 mov	 rcx, rax
  002c9	e8 00 00 00 00	 call	 ??$?6DU?$char_traits@D@std@@_J@std@@YAAEAV?$basic_ostream@DU?$char_traits@D@std@@@0@AEAV10@AEBU?$_Smanip@_J@0@@Z ; std::operator<<<char,std::char_traits<char>,__int64>
  002ce	c5 fb 10 8d e8
	00 00 00	 vmovsd	 xmm1, QWORD PTR time_taken$[rbp]
  002d6	48 8b c8	 mov	 rcx, rax
  002d9	ff 15 00 00 00
	00		 call	 QWORD PTR __imp_??6?$basic_ostream@DU?$char_traits@D@std@@@std@@QEAAAEAV01@N@Z
  002df	48 8d 15 00 00
	00 00		 lea	 rdx, OFFSET FLAT:??_C@_04IBFKBJDL@?5sec@
  002e6	48 8b c8	 mov	 rcx, rax
  002e9	e8 00 00 00 00	 call	 ??$?6U?$char_traits@D@std@@@std@@YAAEAV?$basic_ostream@DU?$char_traits@D@std@@@0@AEAV10@PEBD@Z ; std::operator<<<std::char_traits<char> >
  002ee	48 8d 15 00 00
	00 00		 lea	 rdx, OFFSET FLAT:??$endl@DU?$char_traits@D@std@@@std@@YAAEAV?$basic_ostream@DU?$char_traits@D@std@@@0@AEAV10@@Z ; std::endl<char,std::char_traits<char> >
  002f5	48 8b c8	 mov	 rcx, rax
  002f8	ff 15 00 00 00
	00		 call	 QWORD PTR __imp_??6?$basic_ostream@DU?$char_traits@D@std@@@std@@QEAAAEAV01@P6AAEAV01@AEAV01@@Z@Z

; 59   :     
; 60   :     start = chrono::high_resolution_clock::now();

  002fe	48 8d 8d 08 04
	00 00		 lea	 rcx, QWORD PTR $T17[rbp]
  00305	e8 00 00 00 00	 call	 ?now@steady_clock@chrono@std@@SA?AV?$time_point@Usteady_clock@chrono@std@@V?$duration@_JU?$ratio@$00$0DLJKMKAA@@std@@@23@@23@XZ ; std::chrono::steady_clock::now
  0030a	48 8b 00	 mov	 rax, QWORD PTR [rax]
  0030d	48 89 85 a8 00
	00 00		 mov	 QWORD PTR start$[rbp], rax

; 61   :     CalcZ_Aavx(z, x, y, size);

  00314	4c 8b 8d 88 00
	00 00		 mov	 r9, QWORD PTR size$[rbp]
  0031b	4c 8b 45 28	 mov	 r8, QWORD PTR y$[rbp]
  0031f	48 8b 55 08	 mov	 rdx, QWORD PTR x$[rbp]
  00323	48 8b 4d 48	 mov	 rcx, QWORD PTR z$[rbp]
  00327	e8 00 00 00 00	 call	 CalcZ_Aavx

; 62   :     end = chrono::high_resolution_clock::now();

  0032c	48 8d 8d 28 04
	00 00		 lea	 rcx, QWORD PTR $T18[rbp]
  00333	e8 00 00 00 00	 call	 ?now@steady_clock@chrono@std@@SA?AV?$time_point@Usteady_clock@chrono@std@@V?$duration@_JU?$ratio@$00$0DLJKMKAA@@std@@@23@@23@XZ ; std::chrono::steady_clock::now
  00338	48 8b 00	 mov	 rax, QWORD PTR [rax]
  0033b	48 89 85 c8 00
	00 00		 mov	 QWORD PTR end$[rbp], rax

; 63   :     time_taken = chrono::duration_cast<chrono::nanoseconds>(end - start).count();

  00342	4c 8d 85 a8 00
	00 00		 lea	 r8, QWORD PTR start$[rbp]
  00349	48 8d 95 c8 00
	00 00		 lea	 rdx, QWORD PTR end$[rbp]
  00350	48 8d 8d 48 04
	00 00		 lea	 rcx, QWORD PTR $T19[rbp]
  00357	e8 00 00 00 00	 call	 ??$?GUsteady_clock@chrono@std@@V?$duration@_JU?$ratio@$00$0DLJKMKAA@@std@@@12@V312@@chrono@std@@YA?AV?$duration@_JU?$ratio@$00$0DLJKMKAA@@std@@@01@AEBV?$time_point@Usteady_clock@chrono@std@@V?$duration@_JU?$ratio@$00$0DLJKMKAA@@std@@@23@@01@0@Z ; std::chrono::operator-<std::chrono::steady_clock,std::chrono::duration<__int64,std::ratio<1,1000000000> >,std::chrono::duration<__int64,std::ratio<1,1000000000> > >
  0035c	48 8b d0	 mov	 rdx, rax
  0035f	48 8d 8d 68 04
	00 00		 lea	 rcx, QWORD PTR $T20[rbp]
  00366	e8 00 00 00 00	 call	 ??$duration_cast@V?$duration@_JU?$ratio@$00$0DLJKMKAA@@std@@@chrono@std@@_JU?$ratio@$00$0DLJKMKAA@@3@$0A@@chrono@std@@YA?AV?$duration@_JU?$ratio@$00$0DLJKMKAA@@std@@@01@AEBV201@@Z ; std::chrono::duration_cast<std::chrono::duration<__int64,std::ratio<1,1000000000> >,__int64,std::ratio<1,1000000000>,0>
  0036b	48 8b c8	 mov	 rcx, rax
  0036e	e8 00 00 00 00	 call	 ?count@?$duration@_JU?$ratio@$00$0DLJKMKAA@@std@@@chrono@std@@QEBA_JXZ ; std::chrono::duration<__int64,std::ratio<1,1000000000> >::count
  00373	c4 e1 fb 2a c0	 vcvtsi2sd xmm0, xmm0, rax
  00378	c5 fb 11 85 e8
	00 00 00	 vmovsd	 QWORD PTR time_taken$[rbp], xmm0

; 64   :     time_taken *= 1e-9;

  00380	c5 fb 10 85 e8
	00 00 00	 vmovsd	 xmm0, QWORD PTR time_taken$[rbp]
  00388	c5 fb 59 05 00
	00 00 00	 vmulsd	 xmm0, xmm0, QWORD PTR __real@3e112e0be826d695
  00390	c5 fb 11 85 e8
	00 00 00	 vmovsd	 QWORD PTR time_taken$[rbp], xmm0

; 65   :     cout << "Time taken by Aavx program is : " << fixed << setprecision(9) << time_taken << " sec" << endl;

  00398	ba 09 00 00 00	 mov	 edx, 9
  0039d	48 8d 8d 88 04
	00 00		 lea	 rcx, QWORD PTR $T21[rbp]
  003a4	e8 00 00 00 00	 call	 ?setprecision@std@@YA?AU?$_Smanip@_J@1@_J@Z ; std::setprecision
  003a9	48 89 85 a8 04
	00 00		 mov	 QWORD PTR tv225[rbp], rax
  003b0	48 8d 15 00 00
	00 00		 lea	 rdx, OFFSET FLAT:??_C@_0CB@KGIIJFCA@Time?5taken?5by?5Aavx?5program?5is?5?3@
  003b7	48 8b 0d 00 00
	00 00		 mov	 rcx, QWORD PTR __imp_?cout@std@@3V?$basic_ostream@DU?$char_traits@D@std@@@1@A
  003be	e8 00 00 00 00	 call	 ??$?6U?$char_traits@D@std@@@std@@YAAEAV?$basic_ostream@DU?$char_traits@D@std@@@0@AEAV10@PEBD@Z ; std::operator<<<std::char_traits<char> >
  003c3	48 8d 15 00 00
	00 00		 lea	 rdx, OFFSET FLAT:?fixed@std@@YAAEAVios_base@1@AEAV21@@Z ; std::fixed
  003ca	48 8b c8	 mov	 rcx, rax
  003cd	ff 15 00 00 00
	00		 call	 QWORD PTR __imp_??6?$basic_ostream@DU?$char_traits@D@std@@@std@@QEAAAEAV01@P6AAEAVios_base@1@AEAV21@@Z@Z
  003d3	48 8b 8d a8 04
	00 00		 mov	 rcx, QWORD PTR tv225[rbp]
  003da	48 8b d1	 mov	 rdx, rcx
  003dd	48 8b c8	 mov	 rcx, rax
  003e0	e8 00 00 00 00	 call	 ??$?6DU?$char_traits@D@std@@_J@std@@YAAEAV?$basic_ostream@DU?$char_traits@D@std@@@0@AEAV10@AEBU?$_Smanip@_J@0@@Z ; std::operator<<<char,std::char_traits<char>,__int64>
  003e5	c5 fb 10 8d e8
	00 00 00	 vmovsd	 xmm1, QWORD PTR time_taken$[rbp]
  003ed	48 8b c8	 mov	 rcx, rax
  003f0	ff 15 00 00 00
	00		 call	 QWORD PTR __imp_??6?$basic_ostream@DU?$char_traits@D@std@@@std@@QEAAAEAV01@N@Z
  003f6	48 8d 15 00 00
	00 00		 lea	 rdx, OFFSET FLAT:??_C@_04IBFKBJDL@?5sec@
  003fd	48 8b c8	 mov	 rcx, rax
  00400	e8 00 00 00 00	 call	 ??$?6U?$char_traits@D@std@@@std@@YAAEAV?$basic_ostream@DU?$char_traits@D@std@@@0@AEAV10@PEBD@Z ; std::operator<<<std::char_traits<char> >
  00405	48 8d 15 00 00
	00 00		 lea	 rdx, OFFSET FLAT:??$endl@DU?$char_traits@D@std@@@std@@YAAEAV?$basic_ostream@DU?$char_traits@D@std@@@0@AEAV10@@Z ; std::endl<char,std::char_traits<char> >
  0040c	48 8b c8	 mov	 rcx, rax
  0040f	ff 15 00 00 00
	00		 call	 QWORD PTR __imp_??6?$basic_ostream@DU?$char_traits@D@std@@@std@@QEAAAEAV01@P6AAEAV01@AEAV01@@Z@Z

; 66   :     
; 67   : 
; 68   : 
; 69   :     //for (int i = 0; i < 100; i++) {
; 70   :     //    cout << x[i]<<" "<<y[i]<<" "<<z[i] << " \n";
; 71   :     //}
; 72   : }

  00415	33 c0		 xor	 eax, eax
  00417	8b f8		 mov	 edi, eax
  00419	48 8d 4d e0	 lea	 rcx, QWORD PTR [rbp-32]
  0041d	48 8d 15 00 00
	00 00		 lea	 rdx, OFFSET FLAT:main$rtcFrameData
  00424	e8 00 00 00 00	 call	 _RTC_CheckStackVars
  00429	8b c7		 mov	 eax, edi
  0042b	48 8b 8d b0 04
	00 00		 mov	 rcx, QWORD PTR __$ArrayPad$[rbp]
  00432	48 33 cd	 xor	 rcx, rbp
  00435	e8 00 00 00 00	 call	 __security_check_cookie
  0043a	48 8d a5 c8 04
	00 00		 lea	 rsp, QWORD PTR [rbp+1224]
  00441	5f		 pop	 rdi
  00442	5d		 pop	 rbp
  00443	c3		 ret	 0
main	ENDP
_TEXT	ENDS
; Function compile flags: /Odtp /RTCsu /ZI
; File C:\Program Files (x86)\Microsoft Visual Studio\2019\Community\VC\Tools\MSVC\14.29.30133\include\chrono
;	COMDAT ??$?0_J$0A@@?$duration@_JU?$ratio@$00$0DLJKMKAA@@std@@@chrono@std@@QEAA@AEB_J@Z
_TEXT	SEGMENT
this$ = 224
_Val$ = 232
??$?0_J$0A@@?$duration@_JU?$ratio@$00$0DLJKMKAA@@std@@@chrono@std@@QEAA@AEB_J@Z PROC ; std::chrono::duration<__int64,std::ratio<1,1000000000> >::duration<__int64,std::ratio<1,1000000000> ><__int64,0>, COMDAT

; 124  :             : _MyRep(static_cast<_Rep>(_Val)) {}

$LN3:
  00000	48 89 54 24 10	 mov	 QWORD PTR [rsp+16], rdx
  00005	48 89 4c 24 08	 mov	 QWORD PTR [rsp+8], rcx
  0000a	55		 push	 rbp
  0000b	57		 push	 rdi
  0000c	48 81 ec e8 00
	00 00		 sub	 rsp, 232		; 000000e8H
  00013	48 8d 6c 24 20	 lea	 rbp, QWORD PTR [rsp+32]
  00018	48 8d 0d 00 00
	00 00		 lea	 rcx, OFFSET FLAT:__1B08F288_chrono
  0001f	e8 00 00 00 00	 call	 __CheckForDebuggerJustMyCode
  00024	48 8b 85 e0 00
	00 00		 mov	 rax, QWORD PTR this$[rbp]
  0002b	48 8b 8d e8 00
	00 00		 mov	 rcx, QWORD PTR _Val$[rbp]
  00032	48 8b 09	 mov	 rcx, QWORD PTR [rcx]
  00035	48 89 08	 mov	 QWORD PTR [rax], rcx
  00038	48 8b 85 e0 00
	00 00		 mov	 rax, QWORD PTR this$[rbp]
  0003f	48 8d a5 c8 00
	00 00		 lea	 rsp, QWORD PTR [rbp+200]
  00046	5f		 pop	 rdi
  00047	5d		 pop	 rbp
  00048	c3		 ret	 0
??$?0_J$0A@@?$duration@_JU?$ratio@$00$0DLJKMKAA@@std@@@chrono@std@@QEAA@AEB_J@Z ENDP ; std::chrono::duration<__int64,std::ratio<1,1000000000> >::duration<__int64,std::ratio<1,1000000000> ><__int64,0>
_TEXT	ENDS
; Function compile flags: /Odtp /RTCsu /ZI
; File C:\Program Files (x86)\Microsoft Visual Studio\2019\Community\VC\Tools\MSVC\14.29.30133\include\chrono
;	COMDAT ?time_since_epoch@?$time_point@Usteady_clock@chrono@std@@V?$duration@_JU?$ratio@$00$0DLJKMKAA@@std@@@23@@chrono@std@@QEBA?AV?$duration@_JU?$ratio@$00$0DLJKMKAA@@std@@@23@XZ
_TEXT	SEGMENT
this$ = 224
__$ReturnUdt$ = 232
?time_since_epoch@?$time_point@Usteady_clock@chrono@std@@V?$duration@_JU?$ratio@$00$0DLJKMKAA@@std@@@23@@chrono@std@@QEBA?AV?$duration@_JU?$ratio@$00$0DLJKMKAA@@std@@@23@XZ PROC ; std::chrono::time_point<std::chrono::steady_clock,std::chrono::duration<__int64,std::ratio<1,1000000000> > >::time_since_epoch, COMDAT

; 237  :         _NODISCARD constexpr _Duration time_since_epoch() const noexcept(is_arithmetic_v<rep>) /* strengthened */ {

$LN3:
  00000	48 89 54 24 10	 mov	 QWORD PTR [rsp+16], rdx
  00005	48 89 4c 24 08	 mov	 QWORD PTR [rsp+8], rcx
  0000a	55		 push	 rbp
  0000b	57		 push	 rdi
  0000c	48 81 ec e8 00
	00 00		 sub	 rsp, 232		; 000000e8H
  00013	48 8d 6c 24 20	 lea	 rbp, QWORD PTR [rsp+32]
  00018	48 8d 0d 00 00
	00 00		 lea	 rcx, OFFSET FLAT:__1B08F288_chrono
  0001f	e8 00 00 00 00	 call	 __CheckForDebuggerJustMyCode

; 238  :             return _MyDur;

  00024	48 8b 85 e0 00
	00 00		 mov	 rax, QWORD PTR this$[rbp]
  0002b	48 8b 00	 mov	 rax, QWORD PTR [rax]
  0002e	48 8b 8d e8 00
	00 00		 mov	 rcx, QWORD PTR __$ReturnUdt$[rbp]
  00035	48 89 01	 mov	 QWORD PTR [rcx], rax
  00038	48 8b 85 e8 00
	00 00		 mov	 rax, QWORD PTR __$ReturnUdt$[rbp]

; 239  :         }

  0003f	48 8d a5 c8 00
	00 00		 lea	 rsp, QWORD PTR [rbp+200]
  00046	5f		 pop	 rdi
  00047	5d		 pop	 rbp
  00048	c3		 ret	 0
?time_since_epoch@?$time_point@Usteady_clock@chrono@std@@V?$duration@_JU?$ratio@$00$0DLJKMKAA@@std@@@23@@chrono@std@@QEBA?AV?$duration@_JU?$ratio@$00$0DLJKMKAA@@std@@@23@XZ ENDP ; std::chrono::time_point<std::chrono::steady_clock,std::chrono::duration<__int64,std::ratio<1,1000000000> > >::time_since_epoch
_TEXT	ENDS
; Function compile flags: /Odtp /RTCsu /ZI
; File C:\Program Files (x86)\Microsoft Visual Studio\2019\Community\VC\Tools\MSVC\14.29.30133\include\chrono
;	COMDAT ??0?$time_point@Usteady_clock@chrono@std@@V?$duration@_JU?$ratio@$00$0DLJKMKAA@@std@@@23@@chrono@std@@QEAA@AEBV?$duration@_JU?$ratio@$00$0DLJKMKAA@@std@@@12@@Z
_TEXT	SEGMENT
this$ = 224
_Other$ = 232
??0?$time_point@Usteady_clock@chrono@std@@V?$duration@_JU?$ratio@$00$0DLJKMKAA@@std@@@23@@chrono@std@@QEAA@AEBV?$duration@_JU?$ratio@$00$0DLJKMKAA@@std@@@12@@Z PROC ; std::chrono::time_point<std::chrono::steady_clock,std::chrono::duration<__int64,std::ratio<1,1000000000> > >::time_point<std::chrono::steady_clock,std::chrono::duration<__int64,std::ratio<1,1000000000> > >, COMDAT

; 229  :         constexpr explicit time_point(const _Duration& _Other) noexcept(is_arithmetic_v<rep>) // strengthened

$LN3:
  00000	48 89 54 24 10	 mov	 QWORD PTR [rsp+16], rdx
  00005	48 89 4c 24 08	 mov	 QWORD PTR [rsp+8], rcx
  0000a	55		 push	 rbp
  0000b	57		 push	 rdi
  0000c	48 81 ec e8 00
	00 00		 sub	 rsp, 232		; 000000e8H
  00013	48 8d 6c 24 20	 lea	 rbp, QWORD PTR [rsp+32]
  00018	48 8d 0d 00 00
	00 00		 lea	 rcx, OFFSET FLAT:__1B08F288_chrono
  0001f	e8 00 00 00 00	 call	 __CheckForDebuggerJustMyCode

; 230  :             : _MyDur(_Other) {}

  00024	48 8b 85 e8 00
	00 00		 mov	 rax, QWORD PTR _Other$[rbp]
  0002b	48 8b 00	 mov	 rax, QWORD PTR [rax]
  0002e	48 8b 8d e0 00
	00 00		 mov	 rcx, QWORD PTR this$[rbp]
  00035	48 89 01	 mov	 QWORD PTR [rcx], rax
  00038	48 8b 85 e0 00
	00 00		 mov	 rax, QWORD PTR this$[rbp]
  0003f	48 8d a5 c8 00
	00 00		 lea	 rsp, QWORD PTR [rbp+200]
  00046	5f		 pop	 rdi
  00047	5d		 pop	 rbp
  00048	c3		 ret	 0
??0?$time_point@Usteady_clock@chrono@std@@V?$duration@_JU?$ratio@$00$0DLJKMKAA@@std@@@23@@chrono@std@@QEAA@AEBV?$duration@_JU?$ratio@$00$0DLJKMKAA@@std@@@12@@Z ENDP ; std::chrono::time_point<std::chrono::steady_clock,std::chrono::duration<__int64,std::ratio<1,1000000000> > >::time_point<std::chrono::steady_clock,std::chrono::duration<__int64,std::ratio<1,1000000000> > >
_TEXT	ENDS
; Function compile flags: /Odtp /RTCsu /ZI
; File C:\Program Files (x86)\Microsoft Visual Studio\2019\Community\VC\Tools\MSVC\14.29.30133\include\chrono
;	COMDAT ?count@?$duration@_JU?$ratio@$00$0DLJKMKAA@@std@@@chrono@std@@QEBA_JXZ
_TEXT	SEGMENT
this$ = 224
?count@?$duration@_JU?$ratio@$00$0DLJKMKAA@@std@@@chrono@std@@QEBA_JXZ PROC ; std::chrono::duration<__int64,std::ratio<1,1000000000> >::count, COMDAT

; 135  :         _NODISCARD constexpr _Rep count() const noexcept(is_arithmetic_v<_Rep>) /* strengthened */ {

$LN3:
  00000	48 89 4c 24 08	 mov	 QWORD PTR [rsp+8], rcx
  00005	55		 push	 rbp
  00006	57		 push	 rdi
  00007	48 81 ec e8 00
	00 00		 sub	 rsp, 232		; 000000e8H
  0000e	48 8d 6c 24 20	 lea	 rbp, QWORD PTR [rsp+32]
  00013	48 8d 0d 00 00
	00 00		 lea	 rcx, OFFSET FLAT:__1B08F288_chrono
  0001a	e8 00 00 00 00	 call	 __CheckForDebuggerJustMyCode

; 136  :             return _MyRep;

  0001f	48 8b 85 e0 00
	00 00		 mov	 rax, QWORD PTR this$[rbp]
  00026	48 8b 00	 mov	 rax, QWORD PTR [rax]

; 137  :         }

  00029	48 8d a5 c8 00
	00 00		 lea	 rsp, QWORD PTR [rbp+200]
  00030	5f		 pop	 rdi
  00031	5d		 pop	 rbp
  00032	c3		 ret	 0
?count@?$duration@_JU?$ratio@$00$0DLJKMKAA@@std@@@chrono@std@@QEBA_JXZ ENDP ; std::chrono::duration<__int64,std::ratio<1,1000000000> >::count
_TEXT	ENDS
; Function compile flags: /Odtp /RTCsu /ZI
; File C:\Program Files (x86)\Microsoft Visual Studio\2019\Community\VC\Tools\MSVC\14.29.30133\include\chrono
;	COMDAT ?now@steady_clock@chrono@std@@SA?AV?$time_point@Usteady_clock@chrono@std@@V?$duration@_JU?$ratio@$00$0DLJKMKAA@@std@@@23@@23@XZ
_TEXT	SEGMENT
_Freq$ = 8
_Ctr$ = 40
_Whole$ = 72
_Part$ = 104
$T1 = 328
$T2 = 360
__$ReturnUdt$ = 416
?now@steady_clock@chrono@std@@SA?AV?$time_point@Usteady_clock@chrono@std@@V?$duration@_JU?$ratio@$00$0DLJKMKAA@@std@@@23@@23@XZ PROC ; std::chrono::steady_clock::now, COMDAT

; 704  :         _NODISCARD static time_point now() noexcept { // get current time

$LN3:
  00000	48 89 4c 24 08	 mov	 QWORD PTR [rsp+8], rcx
  00005	55		 push	 rbp
  00006	57		 push	 rdi
  00007	48 81 ec a8 01
	00 00		 sub	 rsp, 424		; 000001a8H
  0000e	48 8d 6c 24 20	 lea	 rbp, QWORD PTR [rsp+32]
  00013	48 8d 0d 00 00
	00 00		 lea	 rcx, OFFSET FLAT:__1B08F288_chrono
  0001a	e8 00 00 00 00	 call	 __CheckForDebuggerJustMyCode

; 705  :             const long long _Freq = _Query_perf_frequency(); // doesn't change after system boot

  0001f	e8 00 00 00 00	 call	 _Query_perf_frequency
  00024	48 89 45 08	 mov	 QWORD PTR _Freq$[rbp], rax

; 706  :             const long long _Ctr  = _Query_perf_counter();

  00028	e8 00 00 00 00	 call	 _Query_perf_counter
  0002d	48 89 45 28	 mov	 QWORD PTR _Ctr$[rbp], rax

; 707  :             static_assert(period::num == 1, "This assumes period::num == 1.");
; 708  :             // Instead of just having "(_Ctr * period::den) / _Freq",
; 709  :             // the algorithm below prevents overflow when _Ctr is sufficiently large.
; 710  :             // It assumes that _Freq * period::den does not overflow, which is currently true for nano period.
; 711  :             // It is not realistic for _Ctr to accumulate to large values from zero with this assumption,
; 712  :             // but the initial value of _Ctr could be large.
; 713  :             const long long _Whole = (_Ctr / _Freq) * period::den;

  00031	48 8b 45 28	 mov	 rax, QWORD PTR _Ctr$[rbp]
  00035	48 99		 cdq
  00037	48 f7 7d 08	 idiv	 QWORD PTR _Freq$[rbp]
  0003b	48 69 c0 00 ca
	9a 3b		 imul	 rax, rax, 1000000000	; 3b9aca00H
  00042	48 89 45 48	 mov	 QWORD PTR _Whole$[rbp], rax

; 714  :             const long long _Part  = (_Ctr % _Freq) * period::den / _Freq;

  00046	48 8b 45 28	 mov	 rax, QWORD PTR _Ctr$[rbp]
  0004a	48 99		 cdq
  0004c	48 f7 7d 08	 idiv	 QWORD PTR _Freq$[rbp]
  00050	48 8b c2	 mov	 rax, rdx
  00053	48 69 c0 00 ca
	9a 3b		 imul	 rax, rax, 1000000000	; 3b9aca00H
  0005a	48 99		 cdq
  0005c	48 f7 7d 08	 idiv	 QWORD PTR _Freq$[rbp]
  00060	48 89 45 68	 mov	 QWORD PTR _Part$[rbp], rax

; 715  :             return time_point(duration(_Whole + _Part));

  00064	48 8b 45 68	 mov	 rax, QWORD PTR _Part$[rbp]
  00068	48 8b 4d 48	 mov	 rcx, QWORD PTR _Whole$[rbp]
  0006c	48 03 c8	 add	 rcx, rax
  0006f	48 8b c1	 mov	 rax, rcx
  00072	48 89 85 68 01
	00 00		 mov	 QWORD PTR $T2[rbp], rax
  00079	48 8d 95 68 01
	00 00		 lea	 rdx, QWORD PTR $T2[rbp]
  00080	48 8d 8d 48 01
	00 00		 lea	 rcx, QWORD PTR $T1[rbp]
  00087	e8 00 00 00 00	 call	 ??$?0_J$0A@@?$duration@_JU?$ratio@$00$0DLJKMKAA@@std@@@chrono@std@@QEAA@AEB_J@Z ; std::chrono::duration<__int64,std::ratio<1,1000000000> >::duration<__int64,std::ratio<1,1000000000> ><__int64,0>
  0008c	48 8b d0	 mov	 rdx, rax
  0008f	48 8b 8d a0 01
	00 00		 mov	 rcx, QWORD PTR __$ReturnUdt$[rbp]
  00096	e8 00 00 00 00	 call	 ??0?$time_point@Usteady_clock@chrono@std@@V?$duration@_JU?$ratio@$00$0DLJKMKAA@@std@@@23@@chrono@std@@QEAA@AEBV?$duration@_JU?$ratio@$00$0DLJKMKAA@@std@@@12@@Z ; std::chrono::time_point<std::chrono::steady_clock,std::chrono::duration<__int64,std::ratio<1,1000000000> > >::time_point<std::chrono::steady_clock,std::chrono::duration<__int64,std::ratio<1,1000000000> > >
  0009b	48 8b 85 a0 01
	00 00		 mov	 rax, QWORD PTR __$ReturnUdt$[rbp]

; 716  :         }

  000a2	48 8d a5 88 01
	00 00		 lea	 rsp, QWORD PTR [rbp+392]
  000a9	5f		 pop	 rdi
  000aa	5d		 pop	 rbp
  000ab	c3		 ret	 0
?now@steady_clock@chrono@std@@SA?AV?$time_point@Usteady_clock@chrono@std@@V?$duration@_JU?$ratio@$00$0DLJKMKAA@@std@@@23@@23@XZ ENDP ; std::chrono::steady_clock::now
_TEXT	ENDS
; Function compile flags: /Odtp /RTCsu /ZI
; File E:\Visual_Studio_Community\Files\testsolution01\Ch01\Ch01.cpp
;	COMDAT ?CalcZ_Iavx@@YAXPEAMPEBM1_K@Z
_TEXT	SEGMENT
i$ = 8
num_simd_elements$ = 40
x_vals$1 = 96
y_vals$2 = 160
z_vals$3 = 224
$T4 = 480
$T5 = 544
$T6 = 608
z$ = 720
x$ = 728
y$ = 736
n$ = 744
?CalcZ_Iavx@@YAXPEAMPEBM1_K@Z PROC			; CalcZ_Iavx, COMDAT

; 18   : {

$LN9:
  00000	4c 89 4c 24 20	 mov	 QWORD PTR [rsp+32], r9
  00005	4c 89 44 24 18	 mov	 QWORD PTR [rsp+24], r8
  0000a	48 89 54 24 10	 mov	 QWORD PTR [rsp+16], rdx
  0000f	48 89 4c 24 08	 mov	 QWORD PTR [rsp+8], rcx
  00014	41 55		 push	 r13
  00016	55		 push	 rbp
  00017	57		 push	 rdi
  00018	48 81 ec d0 02
	00 00		 sub	 rsp, 720		; 000002d0H
  0001f	4c 8d 6c 24 20	 lea	 r13, QWORD PTR [rsp+32]
  00024	48 8d 6c 24 40	 lea	 rbp, QWORD PTR [rsp+64]
  00029	48 83 e5 e0	 and	 rbp, -32		; ffffffffffffffe0H
  0002d	48 8d 0d 00 00
	00 00		 lea	 rcx, OFFSET FLAT:__3F19CEC4_Ch01@cpp
  00034	e8 00 00 00 00	 call	 __CheckForDebuggerJustMyCode

; 19   :     size_t i = 0;

  00039	48 c7 45 08 00
	00 00 00	 mov	 QWORD PTR i$[rbp], 0

; 20   :     const size_t num_simd_elements = 8;

  00041	48 c7 45 28 08
	00 00 00	 mov	 QWORD PTR num_simd_elements$[rbp], 8

; 21   :     for (; n - i >= num_simd_elements; i += num_simd_elements)

  00049	eb 0c		 jmp	 SHORT $LN4@CalcZ_Iavx
$LN2@CalcZ_Iavx:
  0004b	48 8b 45 08	 mov	 rax, QWORD PTR i$[rbp]
  0004f	48 83 c0 08	 add	 rax, 8
  00053	48 89 45 08	 mov	 QWORD PTR i$[rbp], rax
$LN4@CalcZ_Iavx:
  00057	48 8b 45 08	 mov	 rax, QWORD PTR i$[rbp]
  0005b	49 8b 8d e8 02
	00 00		 mov	 rcx, QWORD PTR n$[r13]
  00062	48 2b c8	 sub	 rcx, rax
  00065	48 8b c1	 mov	 rax, rcx
  00068	48 83 f8 08	 cmp	 rax, 8
  0006c	0f 82 98 00 00
	00		 jb	 $LN3@CalcZ_Iavx

; 22   :     {
; 23   :         // Calculate z[i:i+7] = x[i:i+7] + y[i:i+7]
; 24   :         __m256 x_vals = _mm256_loadu_ps(&x[i]);

  00072	49 8b 85 d8 02
	00 00		 mov	 rax, QWORD PTR x$[r13]
  00079	48 8b 4d 08	 mov	 rcx, QWORD PTR i$[rbp]
  0007d	48 8d 04 88	 lea	 rax, QWORD PTR [rax+rcx*4]
  00081	c5 fc 10 00	 vmovups ymm0, YMMWORD PTR [rax]
  00085	c5 fc 11 85 e0
	01 00 00	 vmovups YMMWORD PTR $T4[rbp], ymm0
  0008d	c5 fc 10 85 e0
	01 00 00	 vmovups ymm0, YMMWORD PTR $T4[rbp]
  00095	c5 fc 11 45 60	 vmovups YMMWORD PTR x_vals$1[rbp], ymm0

; 25   :         __m256 y_vals = _mm256_loadu_ps(&y[i]);

  0009a	49 8b 85 e0 02
	00 00		 mov	 rax, QWORD PTR y$[r13]
  000a1	48 8b 4d 08	 mov	 rcx, QWORD PTR i$[rbp]
  000a5	48 8d 04 88	 lea	 rax, QWORD PTR [rax+rcx*4]
  000a9	c5 fc 10 00	 vmovups ymm0, YMMWORD PTR [rax]
  000ad	c5 fc 11 85 20
	02 00 00	 vmovups YMMWORD PTR $T5[rbp], ymm0
  000b5	c5 fc 10 85 20
	02 00 00	 vmovups ymm0, YMMWORD PTR $T5[rbp]
  000bd	c5 fc 11 85 a0
	00 00 00	 vmovups YMMWORD PTR y_vals$2[rbp], ymm0

; 26   :         __m256 z_vals = _mm256_add_ps(x_vals, y_vals);

  000c5	c5 fc 10 45 60	 vmovups ymm0, YMMWORD PTR x_vals$1[rbp]
  000ca	c5 fc 58 85 a0
	00 00 00	 vaddps	 ymm0, ymm0, YMMWORD PTR y_vals$2[rbp]
  000d2	c5 fc 11 85 60
	02 00 00	 vmovups YMMWORD PTR $T6[rbp], ymm0
  000da	c5 fc 10 85 60
	02 00 00	 vmovups ymm0, YMMWORD PTR $T6[rbp]
  000e2	c5 fc 11 85 e0
	00 00 00	 vmovups YMMWORD PTR z_vals$3[rbp], ymm0

; 27   :         _mm256_storeu_ps(&z[i], z_vals);

  000ea	49 8b 85 d0 02
	00 00		 mov	 rax, QWORD PTR z$[r13]
  000f1	48 8b 4d 08	 mov	 rcx, QWORD PTR i$[rbp]
  000f5	48 8d 04 88	 lea	 rax, QWORD PTR [rax+rcx*4]
  000f9	c5 fc 10 85 e0
	00 00 00	 vmovups ymm0, YMMWORD PTR z_vals$3[rbp]
  00101	c5 fc 11 00	 vmovups YMMWORD PTR [rax], ymm0

; 28   :     }

  00105	e9 41 ff ff ff	 jmp	 $LN2@CalcZ_Iavx
$LN3@CalcZ_Iavx:

; 29   :     // Calculate z[i] = x[i] + y[i] for any remaining elements
; 30   :     for (; i < n; i += 1)

  0010a	eb 0b		 jmp	 SHORT $LN7@CalcZ_Iavx
$LN5@CalcZ_Iavx:
  0010c	48 8b 45 08	 mov	 rax, QWORD PTR i$[rbp]
  00110	48 ff c0	 inc	 rax
  00113	48 89 45 08	 mov	 QWORD PTR i$[rbp], rax
$LN7@CalcZ_Iavx:
  00117	49 8b 85 e8 02
	00 00		 mov	 rax, QWORD PTR n$[r13]
  0011e	48 39 45 08	 cmp	 QWORD PTR i$[rbp], rax
  00122	73 33		 jae	 SHORT $LN6@CalcZ_Iavx

; 31   :         z[i] = x[i] + y[i];

  00124	49 8b 85 d8 02
	00 00		 mov	 rax, QWORD PTR x$[r13]
  0012b	48 8b 4d 08	 mov	 rcx, QWORD PTR i$[rbp]
  0012f	49 8b 95 e0 02
	00 00		 mov	 rdx, QWORD PTR y$[r13]
  00136	4c 8b 45 08	 mov	 r8, QWORD PTR i$[rbp]
  0013a	c5 fa 10 04 88	 vmovss	 xmm0, DWORD PTR [rax+rcx*4]
  0013f	c4 a1 7a 58 04
	82		 vaddss	 xmm0, xmm0, DWORD PTR [rdx+r8*4]
  00145	49 8b 85 d0 02
	00 00		 mov	 rax, QWORD PTR z$[r13]
  0014c	48 8b 4d 08	 mov	 rcx, QWORD PTR i$[rbp]
  00150	c5 fa 11 04 88	 vmovss	 DWORD PTR [rax+rcx*4], xmm0
  00155	eb b5		 jmp	 SHORT $LN5@CalcZ_Iavx
$LN6@CalcZ_Iavx:

; 32   : }

  00157	49 8d a5 b0 02
	00 00		 lea	 rsp, QWORD PTR [r13+688]
  0015e	5f		 pop	 rdi
  0015f	5d		 pop	 rbp
  00160	41 5d		 pop	 r13
  00162	c3		 ret	 0
?CalcZ_Iavx@@YAXPEAMPEBM1_K@Z ENDP			; CalcZ_Iavx
_TEXT	ENDS
; Function compile flags: /Odtp /RTCsu /ZI
; File E:\Visual_Studio_Community\Files\testsolution01\Ch01\Ch01.cpp
;	COMDAT ?CalcZ_Cpp@@YAXPEAMPEBM1_K@Z
_TEXT	SEGMENT
i$1 = 8
z$ = 256
x$ = 264
y$ = 272
n$ = 280
?CalcZ_Cpp@@YAXPEAMPEBM1_K@Z PROC			; CalcZ_Cpp, COMDAT

; 13   : {

$LN6:
  00000	4c 89 4c 24 20	 mov	 QWORD PTR [rsp+32], r9
  00005	4c 89 44 24 18	 mov	 QWORD PTR [rsp+24], r8
  0000a	48 89 54 24 10	 mov	 QWORD PTR [rsp+16], rdx
  0000f	48 89 4c 24 08	 mov	 QWORD PTR [rsp+8], rcx
  00014	55		 push	 rbp
  00015	57		 push	 rdi
  00016	48 81 ec 08 01
	00 00		 sub	 rsp, 264		; 00000108H
  0001d	48 8d 6c 24 20	 lea	 rbp, QWORD PTR [rsp+32]
  00022	48 8d 0d 00 00
	00 00		 lea	 rcx, OFFSET FLAT:__3F19CEC4_Ch01@cpp
  00029	e8 00 00 00 00	 call	 __CheckForDebuggerJustMyCode

; 14   :     for (size_t i = 0; i < n; i++)

  0002e	48 c7 45 08 00
	00 00 00	 mov	 QWORD PTR i$1[rbp], 0
  00036	eb 0b		 jmp	 SHORT $LN4@CalcZ_Cpp
$LN2@CalcZ_Cpp:
  00038	48 8b 45 08	 mov	 rax, QWORD PTR i$1[rbp]
  0003c	48 ff c0	 inc	 rax
  0003f	48 89 45 08	 mov	 QWORD PTR i$1[rbp], rax
$LN4@CalcZ_Cpp:
  00043	48 8b 85 18 01
	00 00		 mov	 rax, QWORD PTR n$[rbp]
  0004a	48 39 45 08	 cmp	 QWORD PTR i$1[rbp], rax
  0004e	73 33		 jae	 SHORT $LN3@CalcZ_Cpp

; 15   :         z[i] = x[i] + y[i];

  00050	48 8b 85 08 01
	00 00		 mov	 rax, QWORD PTR x$[rbp]
  00057	48 8b 4d 08	 mov	 rcx, QWORD PTR i$1[rbp]
  0005b	48 8b 95 10 01
	00 00		 mov	 rdx, QWORD PTR y$[rbp]
  00062	4c 8b 45 08	 mov	 r8, QWORD PTR i$1[rbp]
  00066	c5 fa 10 04 88	 vmovss	 xmm0, DWORD PTR [rax+rcx*4]
  0006b	c4 a1 7a 58 04
	82		 vaddss	 xmm0, xmm0, DWORD PTR [rdx+r8*4]
  00071	48 8b 85 00 01
	00 00		 mov	 rax, QWORD PTR z$[rbp]
  00078	48 8b 4d 08	 mov	 rcx, QWORD PTR i$1[rbp]
  0007c	c5 fa 11 04 88	 vmovss	 DWORD PTR [rax+rcx*4], xmm0
  00081	eb b5		 jmp	 SHORT $LN2@CalcZ_Cpp
$LN3@CalcZ_Cpp:

; 16   : }

  00083	48 8d a5 e8 00
	00 00		 lea	 rsp, QWORD PTR [rbp+232]
  0008a	5f		 pop	 rdi
  0008b	5d		 pop	 rbp
  0008c	c3		 ret	 0
?CalcZ_Cpp@@YAXPEAMPEBM1_K@Z ENDP			; CalcZ_Cpp
_TEXT	ENDS
; Function compile flags: /Odtp /RTCsu /ZI
; File C:\Program Files (x86)\Microsoft Visual Studio\2019\Community\VC\Tools\MSVC\14.29.30133\include\xloctime
;	COMDAT ??$_Getvals@_W@?$time_get@_WV?$istreambuf_iterator@_WU?$char_traits@_W@std@@@std@@@std@@IEAAX_WAEBV_Locinfo@1@@Z
_TEXT	SEGMENT
$T1 = 200
tv93 = 264
tv85 = 264
this$ = 304
__formal$ = 312
_Lobj$ = 320
??$_Getvals@_W@?$time_get@_WV?$istreambuf_iterator@_WU?$char_traits@_W@std@@@std@@@std@@IEAAX_WAEBV_Locinfo@1@@Z PROC ; std::time_get<wchar_t,std::istreambuf_iterator<wchar_t,std::char_traits<wchar_t> > >::_Getvals<wchar_t>, COMDAT

; 173  :     void __CLR_OR_THIS_CALL _Getvals(_Elem2, const _Locinfo& _Lobj) { // get values

$LN5:
  00000	4c 89 44 24 18	 mov	 QWORD PTR [rsp+24], r8
  00005	66 89 54 24 10	 mov	 WORD PTR [rsp+16], dx
  0000a	48 89 4c 24 08	 mov	 QWORD PTR [rsp+8], rcx
  0000f	55		 push	 rbp
  00010	56		 push	 rsi
  00011	57		 push	 rdi
  00012	48 81 ec 30 01
	00 00		 sub	 rsp, 304		; 00000130H
  00019	48 8d 6c 24 20	 lea	 rbp, QWORD PTR [rsp+32]
  0001e	48 8d 0d 00 00
	00 00		 lea	 rcx, OFFSET FLAT:__D96D2425_xloctime
  00025	e8 00 00 00 00	 call	 __CheckForDebuggerJustMyCode

; 174  :         _Cvt = _Lobj._Getcvt();

  0002a	48 8d 95 c8 00
	00 00		 lea	 rdx, QWORD PTR $T1[rbp]
  00031	48 8b 8d 40 01
	00 00		 mov	 rcx, QWORD PTR _Lobj$[rbp]
  00038	ff 15 00 00 00
	00		 call	 QWORD PTR __imp_?_Getcvt@_Locinfo@std@@QEBA?AU_Cvtvec@@XZ
  0003e	48 8b 8d 30 01
	00 00		 mov	 rcx, QWORD PTR this$[rbp]
  00045	48 8d 79 2c	 lea	 rdi, QWORD PTR [rcx+44]
  00049	48 8b f0	 mov	 rsi, rax
  0004c	b9 2c 00 00 00	 mov	 ecx, 44			; 0000002cH
  00051	f3 a4		 rep movsb

; 175  : 
; 176  :         if (is_same_v<_Elem2, wchar_t>) {

  00053	33 c0		 xor	 eax, eax
  00055	83 f8 01	 cmp	 eax, 1
  00058	74 5c		 je	 SHORT $LN2@Getvals

; 177  :             _Days = reinterpret_cast<const _Elem*>(_Maklocwcs(reinterpret_cast<const wchar_t*>(_Lobj._W_Getdays())));

  0005a	48 8b 8d 40 01
	00 00		 mov	 rcx, QWORD PTR _Lobj$[rbp]
  00061	ff 15 00 00 00
	00		 call	 QWORD PTR __imp_?_W_Getdays@_Locinfo@std@@QEBAPEBGXZ
  00067	48 8b c8	 mov	 rcx, rax
  0006a	e8 00 00 00 00	 call	 ?_Maklocwcs@std@@YAPEA_WPEB_W@Z ; std::_Maklocwcs
  0006f	48 8b 8d 30 01
	00 00		 mov	 rcx, QWORD PTR this$[rbp]
  00076	48 89 41 10	 mov	 QWORD PTR [rcx+16], rax

; 178  :             _Months =

  0007a	48 8b 8d 40 01
	00 00		 mov	 rcx, QWORD PTR _Lobj$[rbp]
  00081	ff 15 00 00 00
	00		 call	 QWORD PTR __imp_?_W_Getmonths@_Locinfo@std@@QEBAPEBGXZ
  00087	48 8b c8	 mov	 rcx, rax
  0008a	e8 00 00 00 00	 call	 ?_Maklocwcs@std@@YAPEA_WPEB_W@Z ; std::_Maklocwcs
  0008f	48 8b 8d 30 01
	00 00		 mov	 rcx, QWORD PTR this$[rbp]
  00096	48 89 41 18	 mov	 QWORD PTR [rcx+24], rax

; 179  :                 reinterpret_cast<const _Elem*>(_Maklocwcs(reinterpret_cast<const wchar_t*>(_Lobj._W_Getmonths())));
; 180  :             _Ampm = reinterpret_cast<const _Elem*>(_Maklocwcs(L":AM:am:PM:pm"));

  0009a	48 8d 0d 00 00
	00 00		 lea	 rcx, OFFSET FLAT:??_C@_1BK@MHIKGOKE@?$AA?3?$AAA?$AAM?$AA?3?$AAa?$AAm?$AA?3?$AAP?$AAM?$AA?3?$AAp?$AAm@
  000a1	e8 00 00 00 00	 call	 ?_Maklocwcs@std@@YAPEA_WPEB_W@Z ; std::_Maklocwcs
  000a6	48 8b 8d 30 01
	00 00		 mov	 rcx, QWORD PTR this$[rbp]
  000ad	48 89 41 20	 mov	 QWORD PTR [rcx+32], rax

; 181  :         } else {

  000b1	e9 a3 00 00 00	 jmp	 $LN3@Getvals
$LN2@Getvals:

; 182  :             _Days   = _Maklocstr(_Lobj._Getdays(), static_cast<_Elem*>(nullptr), _Cvt);

  000b6	48 8b 85 30 01
	00 00		 mov	 rax, QWORD PTR this$[rbp]
  000bd	48 83 c0 2c	 add	 rax, 44			; 0000002cH
  000c1	48 89 85 08 01
	00 00		 mov	 QWORD PTR tv85[rbp], rax
  000c8	48 8b 8d 40 01
	00 00		 mov	 rcx, QWORD PTR _Lobj$[rbp]
  000cf	ff 15 00 00 00
	00		 call	 QWORD PTR __imp_?_Getdays@_Locinfo@std@@QEBAPEBDXZ
  000d5	48 8b 8d 08 01
	00 00		 mov	 rcx, QWORD PTR tv85[rbp]
  000dc	4c 8b c1	 mov	 r8, rcx
  000df	33 d2		 xor	 edx, edx
  000e1	48 8b c8	 mov	 rcx, rax
  000e4	e8 00 00 00 00	 call	 ??$_Maklocstr@_W@std@@YAPEA_WPEBDPEA_WAEBU_Cvtvec@@@Z ; std::_Maklocstr<wchar_t>
  000e9	48 8b 8d 30 01
	00 00		 mov	 rcx, QWORD PTR this$[rbp]
  000f0	48 89 41 10	 mov	 QWORD PTR [rcx+16], rax

; 183  :             _Months = _Maklocstr(_Lobj._Getmonths(), static_cast<_Elem*>(nullptr), _Cvt);

  000f4	48 8b 85 30 01
	00 00		 mov	 rax, QWORD PTR this$[rbp]
  000fb	48 83 c0 2c	 add	 rax, 44			; 0000002cH
  000ff	48 89 85 08 01
	00 00		 mov	 QWORD PTR tv93[rbp], rax
  00106	48 8b 8d 40 01
	00 00		 mov	 rcx, QWORD PTR _Lobj$[rbp]
  0010d	ff 15 00 00 00
	00		 call	 QWORD PTR __imp_?_Getmonths@_Locinfo@std@@QEBAPEBDXZ
  00113	48 8b 8d 08 01
	00 00		 mov	 rcx, QWORD PTR tv93[rbp]
  0011a	4c 8b c1	 mov	 r8, rcx
  0011d	33 d2		 xor	 edx, edx
  0011f	48 8b c8	 mov	 rcx, rax
  00122	e8 00 00 00 00	 call	 ??$_Maklocstr@_W@std@@YAPEA_WPEBDPEA_WAEBU_Cvtvec@@@Z ; std::_Maklocstr<wchar_t>
  00127	48 8b 8d 30 01
	00 00		 mov	 rcx, QWORD PTR this$[rbp]
  0012e	48 89 41 18	 mov	 QWORD PTR [rcx+24], rax

; 184  :             _Ampm   = _Maklocstr(":AM:am:PM:pm", static_cast<_Elem*>(nullptr), _Cvt);

  00132	48 8b 85 30 01
	00 00		 mov	 rax, QWORD PTR this$[rbp]
  00139	48 83 c0 2c	 add	 rax, 44			; 0000002cH
  0013d	4c 8b c0	 mov	 r8, rax
  00140	33 d2		 xor	 edx, edx
  00142	48 8d 0d 00 00
	00 00		 lea	 rcx, OFFSET FLAT:??_C@_0N@LPFKKEBD@?3AM?3am?3PM?3pm@
  00149	e8 00 00 00 00	 call	 ??$_Maklocstr@_W@std@@YAPEA_WPEBDPEA_WAEBU_Cvtvec@@@Z ; std::_Maklocstr<wchar_t>
  0014e	48 8b 8d 30 01
	00 00		 mov	 rcx, QWORD PTR this$[rbp]
  00155	48 89 41 20	 mov	 QWORD PTR [rcx+32], rax
$LN3@Getvals:

; 185  :         }
; 186  :     }

  00159	48 8d a5 10 01
	00 00		 lea	 rsp, QWORD PTR [rbp+272]
  00160	5f		 pop	 rdi
  00161	5e		 pop	 rsi
  00162	5d		 pop	 rbp
  00163	c3		 ret	 0
??$_Getvals@_W@?$time_get@_WV?$istreambuf_iterator@_WU?$char_traits@_W@std@@@std@@@std@@IEAAX_WAEBV_Locinfo@1@@Z ENDP ; std::time_get<wchar_t,std::istreambuf_iterator<wchar_t,std::char_traits<wchar_t> > >::_Getvals<wchar_t>
_TEXT	ENDS
; Function compile flags: /Odtp /RTCsu /ZI
; File C:\Program Files (x86)\Microsoft Visual Studio\2019\Community\VC\Tools\MSVC\14.29.30133\include\xloctime
;	COMDAT ??$_Getvals@_W@?$time_get@DV?$istreambuf_iterator@DU?$char_traits@D@std@@@std@@@std@@IEAAX_WAEBV_Locinfo@1@@Z
_TEXT	SEGMENT
$T1 = 200
tv93 = 264
tv85 = 264
this$ = 304
__formal$ = 312
_Lobj$ = 320
??$_Getvals@_W@?$time_get@DV?$istreambuf_iterator@DU?$char_traits@D@std@@@std@@@std@@IEAAX_WAEBV_Locinfo@1@@Z PROC ; std::time_get<char,std::istreambuf_iterator<char,std::char_traits<char> > >::_Getvals<wchar_t>, COMDAT

; 173  :     void __CLR_OR_THIS_CALL _Getvals(_Elem2, const _Locinfo& _Lobj) { // get values

$LN5:
  00000	4c 89 44 24 18	 mov	 QWORD PTR [rsp+24], r8
  00005	66 89 54 24 10	 mov	 WORD PTR [rsp+16], dx
  0000a	48 89 4c 24 08	 mov	 QWORD PTR [rsp+8], rcx
  0000f	55		 push	 rbp
  00010	56		 push	 rsi
  00011	57		 push	 rdi
  00012	48 81 ec 30 01
	00 00		 sub	 rsp, 304		; 00000130H
  00019	48 8d 6c 24 20	 lea	 rbp, QWORD PTR [rsp+32]
  0001e	48 8d 0d 00 00
	00 00		 lea	 rcx, OFFSET FLAT:__D96D2425_xloctime
  00025	e8 00 00 00 00	 call	 __CheckForDebuggerJustMyCode

; 174  :         _Cvt = _Lobj._Getcvt();

  0002a	48 8d 95 c8 00
	00 00		 lea	 rdx, QWORD PTR $T1[rbp]
  00031	48 8b 8d 40 01
	00 00		 mov	 rcx, QWORD PTR _Lobj$[rbp]
  00038	ff 15 00 00 00
	00		 call	 QWORD PTR __imp_?_Getcvt@_Locinfo@std@@QEBA?AU_Cvtvec@@XZ
  0003e	48 8b 8d 30 01
	00 00		 mov	 rcx, QWORD PTR this$[rbp]
  00045	48 8d 79 2c	 lea	 rdi, QWORD PTR [rcx+44]
  00049	48 8b f0	 mov	 rsi, rax
  0004c	b9 2c 00 00 00	 mov	 ecx, 44			; 0000002cH
  00051	f3 a4		 rep movsb

; 175  : 
; 176  :         if (is_same_v<_Elem2, wchar_t>) {

  00053	33 c0		 xor	 eax, eax
  00055	83 f8 01	 cmp	 eax, 1
  00058	74 5c		 je	 SHORT $LN2@Getvals

; 177  :             _Days = reinterpret_cast<const _Elem*>(_Maklocwcs(reinterpret_cast<const wchar_t*>(_Lobj._W_Getdays())));

  0005a	48 8b 8d 40 01
	00 00		 mov	 rcx, QWORD PTR _Lobj$[rbp]
  00061	ff 15 00 00 00
	00		 call	 QWORD PTR __imp_?_W_Getdays@_Locinfo@std@@QEBAPEBGXZ
  00067	48 8b c8	 mov	 rcx, rax
  0006a	e8 00 00 00 00	 call	 ?_Maklocwcs@std@@YAPEA_WPEB_W@Z ; std::_Maklocwcs
  0006f	48 8b 8d 30 01
	00 00		 mov	 rcx, QWORD PTR this$[rbp]
  00076	48 89 41 10	 mov	 QWORD PTR [rcx+16], rax

; 178  :             _Months =

  0007a	48 8b 8d 40 01
	00 00		 mov	 rcx, QWORD PTR _Lobj$[rbp]
  00081	ff 15 00 00 00
	00		 call	 QWORD PTR __imp_?_W_Getmonths@_Locinfo@std@@QEBAPEBGXZ
  00087	48 8b c8	 mov	 rcx, rax
  0008a	e8 00 00 00 00	 call	 ?_Maklocwcs@std@@YAPEA_WPEB_W@Z ; std::_Maklocwcs
  0008f	48 8b 8d 30 01
	00 00		 mov	 rcx, QWORD PTR this$[rbp]
  00096	48 89 41 18	 mov	 QWORD PTR [rcx+24], rax

; 179  :                 reinterpret_cast<const _Elem*>(_Maklocwcs(reinterpret_cast<const wchar_t*>(_Lobj._W_Getmonths())));
; 180  :             _Ampm = reinterpret_cast<const _Elem*>(_Maklocwcs(L":AM:am:PM:pm"));

  0009a	48 8d 0d 00 00
	00 00		 lea	 rcx, OFFSET FLAT:??_C@_1BK@MHIKGOKE@?$AA?3?$AAA?$AAM?$AA?3?$AAa?$AAm?$AA?3?$AAP?$AAM?$AA?3?$AAp?$AAm@
  000a1	e8 00 00 00 00	 call	 ?_Maklocwcs@std@@YAPEA_WPEB_W@Z ; std::_Maklocwcs
  000a6	48 8b 8d 30 01
	00 00		 mov	 rcx, QWORD PTR this$[rbp]
  000ad	48 89 41 20	 mov	 QWORD PTR [rcx+32], rax

; 181  :         } else {

  000b1	e9 a3 00 00 00	 jmp	 $LN3@Getvals
$LN2@Getvals:

; 182  :             _Days   = _Maklocstr(_Lobj._Getdays(), static_cast<_Elem*>(nullptr), _Cvt);

  000b6	48 8b 85 30 01
	00 00		 mov	 rax, QWORD PTR this$[rbp]
  000bd	48 83 c0 2c	 add	 rax, 44			; 0000002cH
  000c1	48 89 85 08 01
	00 00		 mov	 QWORD PTR tv85[rbp], rax
  000c8	48 8b 8d 40 01
	00 00		 mov	 rcx, QWORD PTR _Lobj$[rbp]
  000cf	ff 15 00 00 00
	00		 call	 QWORD PTR __imp_?_Getdays@_Locinfo@std@@QEBAPEBDXZ
  000d5	48 8b 8d 08 01
	00 00		 mov	 rcx, QWORD PTR tv85[rbp]
  000dc	4c 8b c1	 mov	 r8, rcx
  000df	33 d2		 xor	 edx, edx
  000e1	48 8b c8	 mov	 rcx, rax
  000e4	e8 00 00 00 00	 call	 ??$_Maklocstr@D@std@@YAPEADPEBDPEADAEBU_Cvtvec@@@Z ; std::_Maklocstr<char>
  000e9	48 8b 8d 30 01
	00 00		 mov	 rcx, QWORD PTR this$[rbp]
  000f0	48 89 41 10	 mov	 QWORD PTR [rcx+16], rax

; 183  :             _Months = _Maklocstr(_Lobj._Getmonths(), static_cast<_Elem*>(nullptr), _Cvt);

  000f4	48 8b 85 30 01
	00 00		 mov	 rax, QWORD PTR this$[rbp]
  000fb	48 83 c0 2c	 add	 rax, 44			; 0000002cH
  000ff	48 89 85 08 01
	00 00		 mov	 QWORD PTR tv93[rbp], rax
  00106	48 8b 8d 40 01
	00 00		 mov	 rcx, QWORD PTR _Lobj$[rbp]
  0010d	ff 15 00 00 00
	00		 call	 QWORD PTR __imp_?_Getmonths@_Locinfo@std@@QEBAPEBDXZ
  00113	48 8b 8d 08 01
	00 00		 mov	 rcx, QWORD PTR tv93[rbp]
  0011a	4c 8b c1	 mov	 r8, rcx
  0011d	33 d2		 xor	 edx, edx
  0011f	48 8b c8	 mov	 rcx, rax
  00122	e8 00 00 00 00	 call	 ??$_Maklocstr@D@std@@YAPEADPEBDPEADAEBU_Cvtvec@@@Z ; std::_Maklocstr<char>
  00127	48 8b 8d 30 01
	00 00		 mov	 rcx, QWORD PTR this$[rbp]
  0012e	48 89 41 18	 mov	 QWORD PTR [rcx+24], rax

; 184  :             _Ampm   = _Maklocstr(":AM:am:PM:pm", static_cast<_Elem*>(nullptr), _Cvt);

  00132	48 8b 85 30 01
	00 00		 mov	 rax, QWORD PTR this$[rbp]
  00139	48 83 c0 2c	 add	 rax, 44			; 0000002cH
  0013d	4c 8b c0	 mov	 r8, rax
  00140	33 d2		 xor	 edx, edx
  00142	48 8d 0d 00 00
	00 00		 lea	 rcx, OFFSET FLAT:??_C@_0N@LPFKKEBD@?3AM?3am?3PM?3pm@
  00149	e8 00 00 00 00	 call	 ??$_Maklocstr@D@std@@YAPEADPEBDPEADAEBU_Cvtvec@@@Z ; std::_Maklocstr<char>
  0014e	48 8b 8d 30 01
	00 00		 mov	 rcx, QWORD PTR this$[rbp]
  00155	48 89 41 20	 mov	 QWORD PTR [rcx+32], rax
$LN3@Getvals:

; 185  :         }
; 186  :     }

  00159	48 8d a5 10 01
	00 00		 lea	 rsp, QWORD PTR [rbp+272]
  00160	5f		 pop	 rdi
  00161	5e		 pop	 rsi
  00162	5d		 pop	 rbp
  00163	c3		 ret	 0
??$_Getvals@_W@?$time_get@DV?$istreambuf_iterator@DU?$char_traits@D@std@@@std@@@std@@IEAAX_WAEBV_Locinfo@1@@Z ENDP ; std::time_get<char,std::istreambuf_iterator<char,std::char_traits<char> > >::_Getvals<wchar_t>
_TEXT	ENDS
; Function compile flags: /Odtp /RTCsu /ZI
; File C:\Program Files (x86)\Microsoft Visual Studio\2019\Community\VC\Tools\MSVC\14.29.30133\include\ios
;	COMDAT ?fixed@std@@YAAEAVios_base@1@AEAV21@@Z
_TEXT	SEGMENT
_Iosbase$ = 224
?fixed@std@@YAAEAVios_base@1@AEAV21@@Z PROC		; std::fixed, COMDAT

; 201  : inline ios_base& __CLRCALL_OR_CDECL fixed(ios_base& _Iosbase) { // set floatfield to fixed

$LN3:
  00000	48 89 4c 24 08	 mov	 QWORD PTR [rsp+8], rcx
  00005	55		 push	 rbp
  00006	57		 push	 rdi
  00007	48 81 ec e8 00
	00 00		 sub	 rsp, 232		; 000000e8H
  0000e	48 8d 6c 24 20	 lea	 rbp, QWORD PTR [rsp+32]
  00013	48 8d 0d 00 00
	00 00		 lea	 rcx, OFFSET FLAT:__845859A3_ios
  0001a	e8 00 00 00 00	 call	 __CheckForDebuggerJustMyCode

; 202  :     _Iosbase.setf(ios_base::fixed, ios_base::floatfield);

  0001f	41 b8 00 30 00
	00		 mov	 r8d, 12288		; 00003000H
  00025	ba 00 20 00 00	 mov	 edx, 8192		; 00002000H
  0002a	48 8b 8d e0 00
	00 00		 mov	 rcx, QWORD PTR _Iosbase$[rbp]
  00031	ff 15 00 00 00
	00		 call	 QWORD PTR __imp_?setf@ios_base@std@@QEAAHHH@Z

; 203  :     return _Iosbase;

  00037	48 8b 85 e0 00
	00 00		 mov	 rax, QWORD PTR _Iosbase$[rbp]

; 204  : }

  0003e	48 8d a5 c8 00
	00 00		 lea	 rsp, QWORD PTR [rbp+200]
  00045	5f		 pop	 rdi
  00046	5d		 pop	 rbp
  00047	c3		 ret	 0
?fixed@std@@YAAEAVios_base@1@AEAV21@@Z ENDP		; std::fixed
_TEXT	ENDS
; Function compile flags: /Odtp /RTCsu /ZI
; File C:\Program Files (x86)\Microsoft Visual Studio\2019\Community\VC\Tools\MSVC\14.29.30133\include\xlocale
;	COMDAT ??$_Maklocstr@D@std@@YAPEADPEBDPEADAEBU_Cvtvec@@@Z
_TEXT	SEGMENT
_Count$ = 8
_Ptrdest$ = 40
_Ptrnext$1 = 72
_Ptr$ = 320
__formal$ = 328
__formal$ = 336
??$_Maklocstr@D@std@@YAPEADPEBDPEADAEBU_Cvtvec@@@Z PROC	; std::_Maklocstr<char>, COMDAT

; 522  : _Elem* __CRTDECL _Maklocstr(const char* _Ptr, _Elem*, const _Locinfo::_Cvtvec&) {

$LN7:
  00000	4c 89 44 24 18	 mov	 QWORD PTR [rsp+24], r8
  00005	48 89 54 24 10	 mov	 QWORD PTR [rsp+16], rdx
  0000a	48 89 4c 24 08	 mov	 QWORD PTR [rsp+8], rcx
  0000f	55		 push	 rbp
  00010	57		 push	 rdi
  00011	48 81 ec 58 01
	00 00		 sub	 rsp, 344		; 00000158H
  00018	48 8d 6c 24 30	 lea	 rbp, QWORD PTR [rsp+48]
  0001d	48 8d 0d 00 00
	00 00		 lea	 rcx, OFFSET FLAT:__D23FE460_xlocale
  00024	e8 00 00 00 00	 call	 __CheckForDebuggerJustMyCode

; 523  :     // convert C string to _Elem sequence using _Cvtvec
; 524  :     size_t _Count = _CSTD strlen(_Ptr) + 1;

  00029	48 8b 8d 40 01
	00 00		 mov	 rcx, QWORD PTR _Ptr$[rbp]
  00030	e8 00 00 00 00	 call	 strlen
  00035	48 ff c0	 inc	 rax
  00038	48 89 45 08	 mov	 QWORD PTR _Count$[rbp], rax

; 525  : 
; 526  :     _Elem* _Ptrdest = static_cast<_Elem*>(_calloc_dbg(_Count, sizeof(_Elem), _CRT_BLOCK, __FILE__, __LINE__));

  0003c	c7 44 24 20 0e
	02 00 00	 mov	 DWORD PTR [rsp+32], 526	; 0000020eH
  00044	4c 8d 0d 00 00
	00 00		 lea	 r9, OFFSET FLAT:??_C@_0GI@GFIAKDGM@C?3?2Program?5Files?5?$CIx86?$CJ?2Microsof@
  0004b	41 b8 02 00 00
	00		 mov	 r8d, 2
  00051	ba 01 00 00 00	 mov	 edx, 1
  00056	48 8b 4d 08	 mov	 rcx, QWORD PTR _Count$[rbp]
  0005a	ff 15 00 00 00
	00		 call	 QWORD PTR __imp__calloc_dbg
  00060	48 89 45 28	 mov	 QWORD PTR _Ptrdest$[rbp], rax

; 527  : 
; 528  :     if (!_Ptrdest) {

  00064	48 83 7d 28 00	 cmp	 QWORD PTR _Ptrdest$[rbp], 0
  00069	75 05		 jne	 SHORT $LN5@Maklocstr

; 529  :         _Xbad_alloc();

  0006b	e8 00 00 00 00	 call	 ?_Xbad_alloc@std@@YAXXZ	; std::_Xbad_alloc
$LN5@Maklocstr:

; 530  :     }
; 531  : 
; 532  :     for (_Elem* _Ptrnext = _Ptrdest; 0 < _Count; --_Count, ++_Ptrnext, ++_Ptr) {

  00070	48 8b 45 28	 mov	 rax, QWORD PTR _Ptrdest$[rbp]
  00074	48 89 45 48	 mov	 QWORD PTR _Ptrnext$1[rbp], rax
  00078	eb 27		 jmp	 SHORT $LN4@Maklocstr
$LN2@Maklocstr:
  0007a	48 8b 45 08	 mov	 rax, QWORD PTR _Count$[rbp]
  0007e	48 ff c8	 dec	 rax
  00081	48 89 45 08	 mov	 QWORD PTR _Count$[rbp], rax
  00085	48 8b 45 48	 mov	 rax, QWORD PTR _Ptrnext$1[rbp]
  00089	48 ff c0	 inc	 rax
  0008c	48 89 45 48	 mov	 QWORD PTR _Ptrnext$1[rbp], rax
  00090	48 8b 85 40 01
	00 00		 mov	 rax, QWORD PTR _Ptr$[rbp]
  00097	48 ff c0	 inc	 rax
  0009a	48 89 85 40 01
	00 00		 mov	 QWORD PTR _Ptr$[rbp], rax
$LN4@Maklocstr:
  000a1	48 83 7d 08 00	 cmp	 QWORD PTR _Count$[rbp], 0
  000a6	76 12		 jbe	 SHORT $LN3@Maklocstr

; 533  :         *_Ptrnext = static_cast<_Elem>(static_cast<unsigned char>(*_Ptr));

  000a8	48 8b 45 48	 mov	 rax, QWORD PTR _Ptrnext$1[rbp]
  000ac	48 8b 8d 40 01
	00 00		 mov	 rcx, QWORD PTR _Ptr$[rbp]
  000b3	0f b6 09	 movzx	 ecx, BYTE PTR [rcx]
  000b6	88 08		 mov	 BYTE PTR [rax], cl

; 534  :     }

  000b8	eb c0		 jmp	 SHORT $LN2@Maklocstr
$LN3@Maklocstr:

; 535  : 
; 536  :     return _Ptrdest;

  000ba	48 8b 45 28	 mov	 rax, QWORD PTR _Ptrdest$[rbp]
$LN6@Maklocstr:

; 537  : }

  000be	48 8d a5 28 01
	00 00		 lea	 rsp, QWORD PTR [rbp+296]
  000c5	5f		 pop	 rdi
  000c6	5d		 pop	 rbp
  000c7	c3		 ret	 0
??$_Maklocstr@D@std@@YAPEADPEBDPEADAEBU_Cvtvec@@@Z ENDP	; std::_Maklocstr<char>
_TEXT	ENDS
; Function compile flags: /Odtp /RTCsu /ZI
; File C:\Program Files (x86)\Microsoft Visual Studio\2019\Community\VC\Tools\MSVC\14.29.30133\include\xlocnum
;	COMDAT ?_Maklocwcs@std@@YAPEA_WPEB_W@Z
_TEXT	SEGMENT
_Count$ = 8
_Ptrdest$ = 40
_Ptr$ = 288
?_Maklocwcs@std@@YAPEA_WPEB_W@Z PROC			; std::_Maklocwcs, COMDAT

; 90   : inline wchar_t* _Maklocwcs(const wchar_t* _Ptr) { // copy NTWCS to allocated storage

$LN4:
  00000	48 89 4c 24 08	 mov	 QWORD PTR [rsp+8], rcx
  00005	55		 push	 rbp
  00006	57		 push	 rdi
  00007	48 81 ec 38 01
	00 00		 sub	 rsp, 312		; 00000138H
  0000e	48 8d 6c 24 30	 lea	 rbp, QWORD PTR [rsp+48]
  00013	48 8d 0d 00 00
	00 00		 lea	 rcx, OFFSET FLAT:__4CB88277_xlocnum
  0001a	e8 00 00 00 00	 call	 __CheckForDebuggerJustMyCode

; 91   :     const size_t _Count = _CSTD wcslen(_Ptr) + 1;

  0001f	48 8b 8d 20 01
	00 00		 mov	 rcx, QWORD PTR _Ptr$[rbp]
  00026	ff 15 00 00 00
	00		 call	 QWORD PTR __imp_wcslen
  0002c	48 ff c0	 inc	 rax
  0002f	48 89 45 08	 mov	 QWORD PTR _Count$[rbp], rax

; 92   : 
; 93   :     wchar_t* _Ptrdest = static_cast<wchar_t*>(_calloc_dbg(_Count, sizeof(wchar_t), _CRT_BLOCK, __FILE__, __LINE__));

  00033	8b 05 00 00 00
	00		 mov	 eax, DWORD PTR ?__LINE__Var@?0??_Maklocwcs@std@@YAPEA_WPEB_W@Z@4JA
  00039	83 c0 03	 add	 eax, 3
  0003c	89 44 24 20	 mov	 DWORD PTR [rsp+32], eax
  00040	4c 8d 0d 00 00
	00 00		 lea	 r9, OFFSET FLAT:??_C@_0GI@OGMNKBMN@C?3?2Program?5Files?5?$CIx86?$CJ?2Microsof@
  00047	41 b8 02 00 00
	00		 mov	 r8d, 2
  0004d	ba 02 00 00 00	 mov	 edx, 2
  00052	48 8b 4d 08	 mov	 rcx, QWORD PTR _Count$[rbp]
  00056	ff 15 00 00 00
	00		 call	 QWORD PTR __imp__calloc_dbg
  0005c	48 89 45 28	 mov	 QWORD PTR _Ptrdest$[rbp], rax

; 94   : 
; 95   :     if (!_Ptrdest) {

  00060	48 83 7d 28 00	 cmp	 QWORD PTR _Ptrdest$[rbp], 0
  00065	75 05		 jne	 SHORT $LN2@Maklocwcs

; 96   :         _Xbad_alloc();

  00067	e8 00 00 00 00	 call	 ?_Xbad_alloc@std@@YAXXZ	; std::_Xbad_alloc
$LN2@Maklocwcs:

; 97   :     }
; 98   : 
; 99   :     _CSTD wmemcpy(_Ptrdest, _Ptr, _Count);

  0006c	4c 8b 45 08	 mov	 r8, QWORD PTR _Count$[rbp]
  00070	48 8b 95 20 01
	00 00		 mov	 rdx, QWORD PTR _Ptr$[rbp]
  00077	48 8b 4d 28	 mov	 rcx, QWORD PTR _Ptrdest$[rbp]
  0007b	e8 00 00 00 00	 call	 wmemcpy

; 100  :     return _Ptrdest;

  00080	48 8b 45 28	 mov	 rax, QWORD PTR _Ptrdest$[rbp]
$LN3@Maklocwcs:

; 101  : }

  00084	48 8d a5 08 01
	00 00		 lea	 rsp, QWORD PTR [rbp+264]
  0008b	5f		 pop	 rdi
  0008c	5d		 pop	 rbp
  0008d	c3		 ret	 0
?_Maklocwcs@std@@YAPEA_WPEB_W@Z ENDP			; std::_Maklocwcs
_TEXT	ENDS
; Function compile flags: /Odtp /RTCsu /ZI
; File C:\Program Files (x86)\Microsoft Visual Studio\2019\Community\VC\Tools\MSVC\14.29.30133\include\xlocale
;	COMDAT ??$_Maklocstr@_W@std@@YAPEA_WPEBDPEA_WAEBU_Cvtvec@@@Z
_TEXT	SEGMENT
_Count$ = 8
_Count1$ = 40
_Wchars$ = 72
_Ptr1$ = 104
_Bytes$ = 132
_Wc$ = 164
_Mbst1$ = 200
_Ptrdest$ = 232
_Ptrnext$ = 264
_Mbst2$ = 296
__$ArrayPad$ = 504
_Ptr$ = 544
__formal$ = 552
_Cvt$ = 560
??$_Maklocstr@_W@std@@YAPEA_WPEBDPEA_WAEBU_Cvtvec@@@Z PROC ; std::_Maklocstr<wchar_t>, COMDAT

; 540  : inline wchar_t* __CRTDECL _Maklocstr(const char* _Ptr, wchar_t*, const _Locinfo::_Cvtvec& _Cvt) {

$LN12:
  00000	4c 89 44 24 18	 mov	 QWORD PTR [rsp+24], r8
  00005	48 89 54 24 10	 mov	 QWORD PTR [rsp+16], rdx
  0000a	48 89 4c 24 08	 mov	 QWORD PTR [rsp+8], rcx
  0000f	55		 push	 rbp
  00010	57		 push	 rdi
  00011	48 81 ec 38 02
	00 00		 sub	 rsp, 568		; 00000238H
  00018	48 8d 6c 24 30	 lea	 rbp, QWORD PTR [rsp+48]
  0001d	48 8d 7c 24 30	 lea	 rdi, QWORD PTR [rsp+48]
  00022	b9 52 00 00 00	 mov	 ecx, 82			; 00000052H
  00027	b8 cc cc cc cc	 mov	 eax, -858993460		; ccccccccH
  0002c	f3 ab		 rep stosd
  0002e	48 8b 8c 24 58
	02 00 00	 mov	 rcx, QWORD PTR [rsp+600]
  00036	48 8b 05 00 00
	00 00		 mov	 rax, QWORD PTR __security_cookie
  0003d	48 33 c5	 xor	 rax, rbp
  00040	48 89 85 f8 01
	00 00		 mov	 QWORD PTR __$ArrayPad$[rbp], rax
  00047	48 8d 0d 00 00
	00 00		 lea	 rcx, OFFSET FLAT:__D23FE460_xlocale
  0004e	e8 00 00 00 00	 call	 __CheckForDebuggerJustMyCode

; 541  :     // convert C string to wchar_t sequence using _Cvtvec
; 542  :     size_t _Count;
; 543  :     size_t _Count1;
; 544  :     size_t _Wchars;
; 545  :     const char* _Ptr1;
; 546  :     int _Bytes;
; 547  :     wchar_t _Wc;
; 548  :     mbstate_t _Mbst1 = {};

  00053	48 8d 85 c8 00
	00 00		 lea	 rax, QWORD PTR _Mbst1$[rbp]
  0005a	48 8b f8	 mov	 rdi, rax
  0005d	33 c0		 xor	 eax, eax
  0005f	b9 08 00 00 00	 mov	 ecx, 8
  00064	f3 aa		 rep stosb

; 549  : 
; 550  :     _Count1 = _CSTD strlen(_Ptr) + 1;

  00066	48 8b 8d 20 02
	00 00		 mov	 rcx, QWORD PTR _Ptr$[rbp]
  0006d	e8 00 00 00 00	 call	 strlen
  00072	48 ff c0	 inc	 rax
  00075	48 89 45 28	 mov	 QWORD PTR _Count1$[rbp], rax

; 551  :     for (_Count = _Count1, _Wchars = 0, _Ptr1 = _Ptr; 0 < _Count; _Count -= _Bytes, _Ptr1 += _Bytes, ++_Wchars) {

  00079	48 8b 45 28	 mov	 rax, QWORD PTR _Count1$[rbp]
  0007d	48 89 45 08	 mov	 QWORD PTR _Count$[rbp], rax
  00081	48 c7 45 48 00
	00 00 00	 mov	 QWORD PTR _Wchars$[rbp], 0
  00089	48 8b 85 20 02
	00 00		 mov	 rax, QWORD PTR _Ptr$[rbp]
  00090	48 89 45 68	 mov	 QWORD PTR _Ptr1$[rbp], rax
  00094	eb 35		 jmp	 SHORT $LN4@Maklocstr
$LN2@Maklocstr:
  00096	48 63 85 84 00
	00 00		 movsxd	 rax, DWORD PTR _Bytes$[rbp]
  0009d	48 8b 4d 08	 mov	 rcx, QWORD PTR _Count$[rbp]
  000a1	48 2b c8	 sub	 rcx, rax
  000a4	48 8b c1	 mov	 rax, rcx
  000a7	48 89 45 08	 mov	 QWORD PTR _Count$[rbp], rax
  000ab	48 63 85 84 00
	00 00		 movsxd	 rax, DWORD PTR _Bytes$[rbp]
  000b2	48 8b 4d 68	 mov	 rcx, QWORD PTR _Ptr1$[rbp]
  000b6	48 03 c8	 add	 rcx, rax
  000b9	48 8b c1	 mov	 rax, rcx
  000bc	48 89 45 68	 mov	 QWORD PTR _Ptr1$[rbp], rax
  000c0	48 8b 45 48	 mov	 rax, QWORD PTR _Wchars$[rbp]
  000c4	48 ff c0	 inc	 rax
  000c7	48 89 45 48	 mov	 QWORD PTR _Wchars$[rbp], rax
$LN4@Maklocstr:
  000cb	48 83 7d 08 00	 cmp	 QWORD PTR _Count$[rbp], 0
  000d0	76 3a		 jbe	 SHORT $LN3@Maklocstr

; 552  :         if ((_Bytes = _Mbrtowc(&_Wc, _Ptr1, _Count, &_Mbst1, &_Cvt)) <= 0) {

  000d2	48 8b 85 30 02
	00 00		 mov	 rax, QWORD PTR _Cvt$[rbp]
  000d9	48 89 44 24 20	 mov	 QWORD PTR [rsp+32], rax
  000de	4c 8d 8d c8 00
	00 00		 lea	 r9, QWORD PTR _Mbst1$[rbp]
  000e5	4c 8b 45 08	 mov	 r8, QWORD PTR _Count$[rbp]
  000e9	48 8b 55 68	 mov	 rdx, QWORD PTR _Ptr1$[rbp]
  000ed	48 8d 8d a4 00
	00 00		 lea	 rcx, QWORD PTR _Wc$[rbp]
  000f4	e8 00 00 00 00	 call	 _Mbrtowc
  000f9	89 85 84 00 00
	00		 mov	 DWORD PTR _Bytes$[rbp], eax
  000ff	83 bd 84 00 00
	00 00		 cmp	 DWORD PTR _Bytes$[rbp], 0
  00106	7f 02		 jg	 SHORT $LN8@Maklocstr

; 553  :             break;

  00108	eb 02		 jmp	 SHORT $LN3@Maklocstr
$LN8@Maklocstr:

; 554  :         }
; 555  :     }

  0010a	eb 8a		 jmp	 SHORT $LN2@Maklocstr
$LN3@Maklocstr:

; 556  : 
; 557  :     ++_Wchars; // count terminating nul

  0010c	48 8b 45 48	 mov	 rax, QWORD PTR _Wchars$[rbp]
  00110	48 ff c0	 inc	 rax
  00113	48 89 45 48	 mov	 QWORD PTR _Wchars$[rbp], rax

; 558  : 
; 559  :     wchar_t* _Ptrdest = static_cast<wchar_t*>(_calloc_dbg(_Wchars, sizeof(wchar_t), _CRT_BLOCK, __FILE__, __LINE__));

  00117	c7 44 24 20 2f
	02 00 00	 mov	 DWORD PTR [rsp+32], 559	; 0000022fH
  0011f	4c 8d 0d 00 00
	00 00		 lea	 r9, OFFSET FLAT:??_C@_0GI@GFIAKDGM@C?3?2Program?5Files?5?$CIx86?$CJ?2Microsof@
  00126	41 b8 02 00 00
	00		 mov	 r8d, 2
  0012c	ba 02 00 00 00	 mov	 edx, 2
  00131	48 8b 4d 48	 mov	 rcx, QWORD PTR _Wchars$[rbp]
  00135	ff 15 00 00 00
	00		 call	 QWORD PTR __imp__calloc_dbg
  0013b	48 89 85 e8 00
	00 00		 mov	 QWORD PTR _Ptrdest$[rbp], rax

; 560  : 
; 561  :     if (!_Ptrdest) {

  00142	48 83 bd e8 00
	00 00 00	 cmp	 QWORD PTR _Ptrdest$[rbp], 0
  0014a	75 05		 jne	 SHORT $LN9@Maklocstr

; 562  :         _Xbad_alloc();

  0014c	e8 00 00 00 00	 call	 ?_Xbad_alloc@std@@YAXXZ	; std::_Xbad_alloc
$LN9@Maklocstr:

; 563  :     }
; 564  : 
; 565  :     wchar_t* _Ptrnext = _Ptrdest;

  00151	48 8b 85 e8 00
	00 00		 mov	 rax, QWORD PTR _Ptrdest$[rbp]
  00158	48 89 85 08 01
	00 00		 mov	 QWORD PTR _Ptrnext$[rbp], rax

; 566  :     mbstate_t _Mbst2  = {};

  0015f	48 8d 85 28 01
	00 00		 lea	 rax, QWORD PTR _Mbst2$[rbp]
  00166	48 8b f8	 mov	 rdi, rax
  00169	33 c0		 xor	 eax, eax
  0016b	b9 08 00 00 00	 mov	 ecx, 8
  00170	f3 aa		 rep stosb

; 567  : 
; 568  :     for (; 0 < _Wchars; _Count -= _Bytes, _Ptr += _Bytes, --_Wchars, ++_Ptrnext) {

  00172	eb 4d		 jmp	 SHORT $LN7@Maklocstr
$LN5@Maklocstr:
  00174	48 63 85 84 00
	00 00		 movsxd	 rax, DWORD PTR _Bytes$[rbp]
  0017b	48 8b 4d 08	 mov	 rcx, QWORD PTR _Count$[rbp]
  0017f	48 2b c8	 sub	 rcx, rax
  00182	48 8b c1	 mov	 rax, rcx
  00185	48 89 45 08	 mov	 QWORD PTR _Count$[rbp], rax
  00189	48 63 85 84 00
	00 00		 movsxd	 rax, DWORD PTR _Bytes$[rbp]
  00190	48 8b 8d 20 02
	00 00		 mov	 rcx, QWORD PTR _Ptr$[rbp]
  00197	48 03 c8	 add	 rcx, rax
  0019a	48 8b c1	 mov	 rax, rcx
  0019d	48 89 85 20 02
	00 00		 mov	 QWORD PTR _Ptr$[rbp], rax
  001a4	48 8b 45 48	 mov	 rax, QWORD PTR _Wchars$[rbp]
  001a8	48 ff c8	 dec	 rax
  001ab	48 89 45 48	 mov	 QWORD PTR _Wchars$[rbp], rax
  001af	48 8b 85 08 01
	00 00		 mov	 rax, QWORD PTR _Ptrnext$[rbp]
  001b6	48 83 c0 02	 add	 rax, 2
  001ba	48 89 85 08 01
	00 00		 mov	 QWORD PTR _Ptrnext$[rbp], rax
$LN7@Maklocstr:
  001c1	48 83 7d 48 00	 cmp	 QWORD PTR _Wchars$[rbp], 0
  001c6	76 40		 jbe	 SHORT $LN6@Maklocstr

; 569  :         if ((_Bytes = _Mbrtowc(_Ptrnext, _Ptr, _Count1, &_Mbst2, &_Cvt)) <= 0) {

  001c8	48 8b 85 30 02
	00 00		 mov	 rax, QWORD PTR _Cvt$[rbp]
  001cf	48 89 44 24 20	 mov	 QWORD PTR [rsp+32], rax
  001d4	4c 8d 8d 28 01
	00 00		 lea	 r9, QWORD PTR _Mbst2$[rbp]
  001db	4c 8b 45 28	 mov	 r8, QWORD PTR _Count1$[rbp]
  001df	48 8b 95 20 02
	00 00		 mov	 rdx, QWORD PTR _Ptr$[rbp]
  001e6	48 8b 8d 08 01
	00 00		 mov	 rcx, QWORD PTR _Ptrnext$[rbp]
  001ed	e8 00 00 00 00	 call	 _Mbrtowc
  001f2	89 85 84 00 00
	00		 mov	 DWORD PTR _Bytes$[rbp], eax
  001f8	83 bd 84 00 00
	00 00		 cmp	 DWORD PTR _Bytes$[rbp], 0
  001ff	7f 02		 jg	 SHORT $LN10@Maklocstr

; 570  :             break;

  00201	eb 05		 jmp	 SHORT $LN6@Maklocstr
$LN10@Maklocstr:

; 571  :         }
; 572  :     }

  00203	e9 6c ff ff ff	 jmp	 $LN5@Maklocstr
$LN6@Maklocstr:

; 573  : 
; 574  :     *_Ptrnext = L'\0';

  00208	33 c0		 xor	 eax, eax
  0020a	48 8b 8d 08 01
	00 00		 mov	 rcx, QWORD PTR _Ptrnext$[rbp]
  00211	66 89 01	 mov	 WORD PTR [rcx], ax

; 575  : 
; 576  :     return _Ptrdest;

  00214	48 8b 85 e8 00
	00 00		 mov	 rax, QWORD PTR _Ptrdest$[rbp]
$LN11@Maklocstr:

; 577  : }

  0021b	48 8b f8	 mov	 rdi, rax
  0021e	48 8d 4d d0	 lea	 rcx, QWORD PTR [rbp-48]
  00222	48 8d 15 00 00
	00 00		 lea	 rdx, OFFSET FLAT:??$_Maklocstr@_W@std@@YAPEA_WPEBDPEA_WAEBU_Cvtvec@@@Z$rtcFrameData
  00229	e8 00 00 00 00	 call	 _RTC_CheckStackVars
  0022e	48 8b c7	 mov	 rax, rdi
  00231	48 8b 8d f8 01
	00 00		 mov	 rcx, QWORD PTR __$ArrayPad$[rbp]
  00238	48 33 cd	 xor	 rcx, rbp
  0023b	e8 00 00 00 00	 call	 __security_check_cookie
  00240	48 8d a5 08 02
	00 00		 lea	 rsp, QWORD PTR [rbp+520]
  00247	5f		 pop	 rdi
  00248	5d		 pop	 rbp
  00249	c3		 ret	 0
??$_Maklocstr@_W@std@@YAPEA_WPEBDPEA_WAEBU_Cvtvec@@@Z ENDP ; std::_Maklocstr<wchar_t>
_TEXT	ENDS
; Function compile flags: /Odtp /RTCsu /ZI
; File C:\Program Files (x86)\Microsoft Visual Studio\2019\Community\VC\Tools\MSVC\14.29.30133\include\xstring
;	COMDAT ?eof@?$_Narrow_char_traits@DH@std@@SAHXZ
_TEXT	SEGMENT
?eof@?$_Narrow_char_traits@DH@std@@SAHXZ PROC		; std::_Narrow_char_traits<char,int>::eof, COMDAT

; 477  :     _NODISCARD static constexpr int_type eof() noexcept {

$LN3:
  00000	40 55		 push	 rbp
  00002	57		 push	 rdi
  00003	48 81 ec e8 00
	00 00		 sub	 rsp, 232		; 000000e8H
  0000a	48 8d 6c 24 20	 lea	 rbp, QWORD PTR [rsp+32]
  0000f	48 8d 0d 00 00
	00 00		 lea	 rcx, OFFSET FLAT:__0D019051_xstring
  00016	e8 00 00 00 00	 call	 __CheckForDebuggerJustMyCode

; 478  :         return static_cast<int_type>(EOF);

  0001b	b8 ff ff ff ff	 mov	 eax, -1

; 479  :     }

  00020	48 8d a5 c8 00
	00 00		 lea	 rsp, QWORD PTR [rbp+200]
  00027	5f		 pop	 rdi
  00028	5d		 pop	 rbp
  00029	c3		 ret	 0
?eof@?$_Narrow_char_traits@DH@std@@SAHXZ ENDP		; std::_Narrow_char_traits<char,int>::eof
_TEXT	ENDS
; Function compile flags: /Odtp /RTCsu /ZI
; File C:\Program Files (x86)\Microsoft Visual Studio\2019\Community\VC\Tools\MSVC\14.29.30133\include\xstring
;	COMDAT ?eq_int_type@?$_Narrow_char_traits@DH@std@@SA_NAEBH0@Z
_TEXT	SEGMENT
tv65 = 192
_Left$ = 240
_Right$ = 248
?eq_int_type@?$_Narrow_char_traits@DH@std@@SA_NAEBH0@Z PROC ; std::_Narrow_char_traits<char,int>::eq_int_type, COMDAT

; 469  :     _NODISCARD static constexpr bool eq_int_type(const int_type& _Left, const int_type& _Right) noexcept {

$LN5:
  00000	48 89 54 24 10	 mov	 QWORD PTR [rsp+16], rdx
  00005	48 89 4c 24 08	 mov	 QWORD PTR [rsp+8], rcx
  0000a	55		 push	 rbp
  0000b	57		 push	 rdi
  0000c	48 81 ec f8 00
	00 00		 sub	 rsp, 248		; 000000f8H
  00013	48 8d 6c 24 20	 lea	 rbp, QWORD PTR [rsp+32]
  00018	48 8d 0d 00 00
	00 00		 lea	 rcx, OFFSET FLAT:__0D019051_xstring
  0001f	e8 00 00 00 00	 call	 __CheckForDebuggerJustMyCode

; 470  :         return _Left == _Right;

  00024	48 8b 85 f0 00
	00 00		 mov	 rax, QWORD PTR _Left$[rbp]
  0002b	48 8b 8d f8 00
	00 00		 mov	 rcx, QWORD PTR _Right$[rbp]
  00032	8b 09		 mov	 ecx, DWORD PTR [rcx]
  00034	39 08		 cmp	 DWORD PTR [rax], ecx
  00036	75 0c		 jne	 SHORT $LN3@eq_int_typ
  00038	c7 85 c0 00 00
	00 01 00 00 00	 mov	 DWORD PTR tv65[rbp], 1
  00042	eb 0a		 jmp	 SHORT $LN4@eq_int_typ
$LN3@eq_int_typ:
  00044	c7 85 c0 00 00
	00 00 00 00 00	 mov	 DWORD PTR tv65[rbp], 0
$LN4@eq_int_typ:
  0004e	0f b6 85 c0 00
	00 00		 movzx	 eax, BYTE PTR tv65[rbp]

; 471  :     }

  00055	48 8d a5 d8 00
	00 00		 lea	 rsp, QWORD PTR [rbp+216]
  0005c	5f		 pop	 rdi
  0005d	5d		 pop	 rbp
  0005e	c3		 ret	 0
?eq_int_type@?$_Narrow_char_traits@DH@std@@SA_NAEBH0@Z ENDP ; std::_Narrow_char_traits<char,int>::eq_int_type
_TEXT	ENDS
; Function compile flags: /Odtp /RTCsu /ZI
; File C:\Program Files (x86)\Microsoft Visual Studio\2019\Community\VC\Tools\MSVC\14.29.30133\include\xstring
;	COMDAT ?length@?$_Narrow_char_traits@DH@std@@SA_KQEBD@Z
_TEXT	SEGMENT
_First$ = 224
?length@?$_Narrow_char_traits@DH@std@@SA_KQEBD@Z PROC	; std::_Narrow_char_traits<char,int>::length, COMDAT

; 396  :     _NODISCARD static _CONSTEXPR17 size_t length(_In_z_ const _Elem* const _First) noexcept /* strengthened */ {

$LN3:
  00000	48 89 4c 24 08	 mov	 QWORD PTR [rsp+8], rcx
  00005	55		 push	 rbp
  00006	57		 push	 rdi
  00007	48 81 ec e8 00
	00 00		 sub	 rsp, 232		; 000000e8H
  0000e	48 8d 6c 24 20	 lea	 rbp, QWORD PTR [rsp+32]
  00013	48 8d 0d 00 00
	00 00		 lea	 rcx, OFFSET FLAT:__0D019051_xstring
  0001a	e8 00 00 00 00	 call	 __CheckForDebuggerJustMyCode

; 397  :         // find length of null-terminated string
; 398  : #if _HAS_CXX17
; 399  : #ifdef __cpp_char8_t
; 400  :         if constexpr (is_same_v<_Elem, char8_t>) {
; 401  : #if _HAS_U8_INTRINSICS
; 402  :             return __builtin_u8strlen(_First);
; 403  : #else // ^^^ use u8 intrinsics / no u8 intrinsics vvv
; 404  :             return _Primary_char_traits::length(_First);
; 405  : #endif // _HAS_U8_INTRINSICS
; 406  :         } else
; 407  : #endif // __cpp_char8_t
; 408  :         {
; 409  :             return __builtin_strlen(_First);
; 410  :         }
; 411  : #else // _HAS_CXX17
; 412  :         return _CSTD strlen(reinterpret_cast<const char*>(_First));

  0001f	48 8b 8d e0 00
	00 00		 mov	 rcx, QWORD PTR _First$[rbp]
  00026	e8 00 00 00 00	 call	 strlen

; 413  : #endif // _HAS_CXX17
; 414  :     }

  0002b	48 8d a5 c8 00
	00 00		 lea	 rsp, QWORD PTR [rbp+200]
  00032	5f		 pop	 rdi
  00033	5d		 pop	 rbp
  00034	c3		 ret	 0
?length@?$_Narrow_char_traits@DH@std@@SA_KQEBD@Z ENDP	; std::_Narrow_char_traits<char,int>::length
_TEXT	ENDS
; Function compile flags: /Odtp /RTCsu /ZI
; File C:\Program Files (x86)\Windows Kits\10\Include\10.0.19041.0\ucrt\wchar.h
;	COMDAT wmemcpy
_TEXT	SEGMENT
_S1$ = 224
_S2$ = 232
_N$ = 240
wmemcpy	PROC						; COMDAT

; 234  :     {

$LN3:
  00000	4c 89 44 24 18	 mov	 QWORD PTR [rsp+24], r8
  00005	48 89 54 24 10	 mov	 QWORD PTR [rsp+16], rdx
  0000a	48 89 4c 24 08	 mov	 QWORD PTR [rsp+8], rcx
  0000f	55		 push	 rbp
  00010	57		 push	 rdi
  00011	48 81 ec e8 00
	00 00		 sub	 rsp, 232		; 000000e8H
  00018	48 8d 6c 24 20	 lea	 rbp, QWORD PTR [rsp+32]
  0001d	48 8d 0d 00 00
	00 00		 lea	 rcx, OFFSET FLAT:__93DC0B45_wchar@h
  00024	e8 00 00 00 00	 call	 __CheckForDebuggerJustMyCode

; 235  :         #pragma warning(suppress: 6386) // Buffer overrun
; 236  :         return (wchar_t*)memcpy(_S1, _S2, _N*sizeof(wchar_t));

  00029	48 8b 85 f0 00
	00 00		 mov	 rax, QWORD PTR _N$[rbp]
  00030	48 d1 e0	 shl	 rax, 1
  00033	4c 8b c0	 mov	 r8, rax
  00036	48 8b 95 e8 00
	00 00		 mov	 rdx, QWORD PTR _S2$[rbp]
  0003d	48 8b 8d e0 00
	00 00		 mov	 rcx, QWORD PTR _S1$[rbp]
  00044	e8 00 00 00 00	 call	 memcpy

; 237  :     }

  00049	48 8d a5 c8 00
	00 00		 lea	 rsp, QWORD PTR [rbp+200]
  00050	5f		 pop	 rdi
  00051	5d		 pop	 rbp
  00052	c3		 ret	 0
wmemcpy	ENDP
_TEXT	ENDS
; Function compile flags: /Odtp /RTCsu /ZI
; File E:\Visual_Studio_Community\Files\testsolution01\Ch01\Ch01.cpp
;	COMDAT ?__empty_global_delete@@YAXPEAX_K@Z
_TEXT	SEGMENT
__formal$ = 224
__formal$ = 232
?__empty_global_delete@@YAXPEAX_K@Z PROC		; __empty_global_delete, COMDAT

$LN3:
  00000	48 89 54 24 10	 mov	 QWORD PTR [rsp+16], rdx
  00005	48 89 4c 24 08	 mov	 QWORD PTR [rsp+8], rcx
  0000a	55		 push	 rbp
  0000b	57		 push	 rdi
  0000c	48 81 ec e8 00
	00 00		 sub	 rsp, 232		; 000000e8H
  00013	48 8d 6c 24 20	 lea	 rbp, QWORD PTR [rsp+32]
  00018	48 8d 0d 00 00
	00 00		 lea	 rcx, OFFSET FLAT:__3F19CEC4_Ch01@cpp
  0001f	e8 00 00 00 00	 call	 __CheckForDebuggerJustMyCode
  00024	48 8d a5 c8 00
	00 00		 lea	 rsp, QWORD PTR [rbp+200]
  0002b	5f		 pop	 rdi
  0002c	5d		 pop	 rbp
  0002d	c3		 ret	 0
?__empty_global_delete@@YAXPEAX_K@Z ENDP		; __empty_global_delete
_TEXT	ENDS
; Function compile flags: /Odtp /RTCsu /ZI
; File E:\Visual_Studio_Community\Files\testsolution01\Ch01\Ch01.cpp
;	COMDAT ?__empty_global_delete@@YAXPEAX@Z
_TEXT	SEGMENT
__formal$ = 224
?__empty_global_delete@@YAXPEAX@Z PROC			; __empty_global_delete, COMDAT

$LN3:
  00000	48 89 4c 24 08	 mov	 QWORD PTR [rsp+8], rcx
  00005	55		 push	 rbp
  00006	57		 push	 rdi
  00007	48 81 ec e8 00
	00 00		 sub	 rsp, 232		; 000000e8H
  0000e	48 8d 6c 24 20	 lea	 rbp, QWORD PTR [rsp+32]
  00013	48 8d 0d 00 00
	00 00		 lea	 rcx, OFFSET FLAT:__3F19CEC4_Ch01@cpp
  0001a	e8 00 00 00 00	 call	 __CheckForDebuggerJustMyCode
  0001f	48 8d a5 c8 00
	00 00		 lea	 rsp, QWORD PTR [rbp+200]
  00026	5f		 pop	 rdi
  00027	5d		 pop	 rbp
  00028	c3		 ret	 0
?__empty_global_delete@@YAXPEAX@Z ENDP			; __empty_global_delete
_TEXT	ENDS
END
